Archive member included because of file (symbol)

/usr/local/ps3dev/libpsl1ght/ppu/lib/librt.a(sbrk.o)
                              /usr/local/ps3dev/ppu/lib/gcc/powerpc64-ps3-elf/4.7.0/../../../../powerpc64-ps3-elf/lib/lv2-crt0.o (__librt_sbrk_r)
/usr/local/ps3dev/libpsl1ght/ppu/lib/librt.a(exit.o)
                              /usr/local/ps3dev/ppu/lib/gcc/powerpc64-ps3-elf/4.7.0/../../../../powerpc64-ps3-elf/lib/lv2-crt0.o (__librt_exit)
/usr/local/ps3dev/libpsl1ght/ppu/lib/librt.a(close.o)
                              /usr/local/ps3dev/ppu/lib/gcc/powerpc64-ps3-elf/4.7.0/../../../../powerpc64-ps3-elf/lib/lv2-crt0.o (__librt_close_r)
/usr/local/ps3dev/libpsl1ght/ppu/lib/librt.a(lseek.o)
                              /usr/local/ps3dev/ppu/lib/gcc/powerpc64-ps3-elf/4.7.0/../../../../powerpc64-ps3-elf/lib/lv2-crt0.o (__librt_lseek_r)
/usr/local/ps3dev/libpsl1ght/ppu/lib/librt.a(read.o)
                              /usr/local/ps3dev/ppu/lib/gcc/powerpc64-ps3-elf/4.7.0/../../../../powerpc64-ps3-elf/lib/lv2-crt0.o (__librt_read_r)
/usr/local/ps3dev/libpsl1ght/ppu/lib/librt.a(open.o)
                              /usr/local/ps3dev/ppu/lib/gcc/powerpc64-ps3-elf/4.7.0/../../../../powerpc64-ps3-elf/lib/lv2-crt0.o (__librt_open_r)
/usr/local/ps3dev/libpsl1ght/ppu/lib/librt.a(sleep.o)
                              /usr/local/ps3dev/ppu/lib/gcc/powerpc64-ps3-elf/4.7.0/../../../../powerpc64-ps3-elf/lib/lv2-crt0.o (__librt_usleep_r)
/usr/local/ps3dev/libpsl1ght/ppu/lib/librt.a(write.o)
                              /usr/local/ps3dev/ppu/lib/gcc/powerpc64-ps3-elf/4.7.0/../../../../powerpc64-ps3-elf/lib/lv2-crt0.o (__librt_write_r)
/usr/local/ps3dev/libpsl1ght/ppu/lib/librt.a(fstat.o)
                              /usr/local/ps3dev/ppu/lib/gcc/powerpc64-ps3-elf/4.7.0/../../../../powerpc64-ps3-elf/lib/lv2-crt0.o (__librt_fstat_r)
/usr/local/ps3dev/libpsl1ght/ppu/lib/librt.a(socket.o)
                              /usr/local/ps3dev/libpsl1ght/ppu/lib/librt.a(write.o) (send)
/usr/local/ps3dev/libpsl1ght/ppu/lib/librt.a(lock.o)
                              /usr/local/ps3dev/ppu/lib/gcc/powerpc64-ps3-elf/4.7.0/../../../../powerpc64-ps3-elf/lib/lv2-crt0.o (__librt_sys_lwmutex_create_r)
/usr/local/ps3dev/libpsl1ght/ppu/lib/librt.a(dirent.o)
                              /usr/local/ps3dev/ppu/lib/gcc/powerpc64-ps3-elf/4.7.0/../../../../powerpc64-ps3-elf/lib/lv2-crt0.o (__librt_opendir_r)
/usr/local/ps3dev/libpsl1ght/ppu/lib/librt.a(mkdir.o)
                              /usr/local/ps3dev/ppu/lib/gcc/powerpc64-ps3-elf/4.7.0/../../../../powerpc64-ps3-elf/lib/lv2-crt0.o (__librt_mkdir_r)
/usr/local/ps3dev/libpsl1ght/ppu/lib/librt.a(times.o)
                              /usr/local/ps3dev/ppu/lib/gcc/powerpc64-ps3-elf/4.7.0/../../../../powerpc64-ps3-elf/lib/lv2-crt0.o (__librt_times_r)
/usr/local/ps3dev/libpsl1ght/ppu/lib/librt.a(umask.o)
                              /usr/local/ps3dev/ppu/lib/gcc/powerpc64-ps3-elf/4.7.0/../../../../powerpc64-ps3-elf/lib/lv2-crt0.o (__librt_umask_r)
/usr/local/ps3dev/libpsl1ght/ppu/lib/librt.a(lv2errno.o)
                              /usr/local/ps3dev/libpsl1ght/ppu/lib/librt.a(socket.o) (lv2errno)
/usr/local/ps3dev/libpsl1ght/ppu/lib/librt.a(heap.o)
                              /usr/local/ps3dev/libpsl1ght/ppu/lib/librt.a(sbrk.o) (heapInit)
/usr/local/ps3dev/libpsl1ght/ppu/lib/librt.a(chmod.o)
                              /usr/local/ps3dev/ppu/lib/gcc/powerpc64-ps3-elf/4.7.0/../../../../powerpc64-ps3-elf/lib/lv2-crt0.o (__librt_chmod_r)
/usr/local/ps3dev/libpsl1ght/ppu/lib/librt.a(rmdir.o)
                              /usr/local/ps3dev/ppu/lib/gcc/powerpc64-ps3-elf/4.7.0/../../../../powerpc64-ps3-elf/lib/lv2-crt0.o (__librt_rmdir_r)
/usr/local/ps3dev/libpsl1ght/ppu/lib/librt.a(isatty.o)
                              /usr/local/ps3dev/ppu/lib/gcc/powerpc64-ps3-elf/4.7.0/../../../../powerpc64-ps3-elf/lib/lv2-crt0.o (__librt_isatty_r)
/usr/local/ps3dev/libpsl1ght/ppu/lib/librt.a(gettod.o)
                              /usr/local/ps3dev/ppu/lib/gcc/powerpc64-ps3-elf/4.7.0/../../../../powerpc64-ps3-elf/lib/lv2-crt0.o (__librt_gettod_r)
/usr/local/ps3dev/libpsl1ght/ppu/lib/librt.a(settod.o)
                              /usr/local/ps3dev/ppu/lib/gcc/powerpc64-ps3-elf/4.7.0/../../../../powerpc64-ps3-elf/lib/lv2-crt0.o (__librt_settod_r)
/usr/local/ps3dev/libpsl1ght/ppu/lib/liblv2.a(sprx.o)
                              /usr/local/ps3dev/libpsl1ght/ppu/lib/librt.a(sbrk.o) (sysSpinlockInitialize)
/usr/local/ps3dev/ppu/lib/gcc/powerpc64-ps3-elf/4.7.0/../../../../powerpc64-ps3-elf/lib/libsysbase.a(syscalls.o)
                              /usr/local/ps3dev/ppu/lib/gcc/powerpc64-ps3-elf/4.7.0/../../../../powerpc64-ps3-elf/lib/lv2-crt0.o (__syscalls)
/usr/local/ps3dev/ppu/lib/gcc/powerpc64-ps3-elf/4.7.0/../../../../powerpc64-ps3-elf/lib/libc.a(lib_a-errno.o)
                              /usr/local/ps3dev/libpsl1ght/ppu/lib/librt.a(socket.o) (__errno)
/usr/local/ps3dev/ppu/lib/gcc/powerpc64-ps3-elf/4.7.0/../../../../powerpc64-ps3-elf/lib/libc.a(lib_a-exit.o)
                              /usr/local/ps3dev/ppu/lib/gcc/powerpc64-ps3-elf/4.7.0/../../../../powerpc64-ps3-elf/lib/lv2-crt0.o (exit)
/usr/local/ps3dev/ppu/lib/gcc/powerpc64-ps3-elf/4.7.0/../../../../powerpc64-ps3-elf/lib/libc.a(lib_a-getreent.o)
                              /usr/local/ps3dev/ppu/lib/gcc/powerpc64-ps3-elf/4.7.0/../../../../powerpc64-ps3-elf/lib/libc.a(lib_a-errno.o) (__getreent)
/usr/local/ps3dev/ppu/lib/gcc/powerpc64-ps3-elf/4.7.0/../../../../powerpc64-ps3-elf/lib/libc.a(lib_a-impure.o)
                              /usr/local/ps3dev/ppu/lib/gcc/powerpc64-ps3-elf/4.7.0/../../../../powerpc64-ps3-elf/lib/libc.a(lib_a-exit.o) (_global_impure_ptr)
/usr/local/ps3dev/ppu/lib/gcc/powerpc64-ps3-elf/4.7.0/../../../../powerpc64-ps3-elf/lib/libc.a(lib_a-malloc.o)
                              /usr/local/ps3dev/libpsl1ght/ppu/lib/librt.a(dirent.o) (malloc)
/usr/local/ps3dev/ppu/lib/gcc/powerpc64-ps3-elf/4.7.0/../../../../powerpc64-ps3-elf/lib/libc.a(lib_a-mallocr.o)
                              /usr/local/ps3dev/ppu/lib/gcc/powerpc64-ps3-elf/4.7.0/../../../../powerpc64-ps3-elf/lib/libc.a(lib_a-malloc.o) (_malloc_r)
/usr/local/ps3dev/ppu/lib/gcc/powerpc64-ps3-elf/4.7.0/../../../../powerpc64-ps3-elf/lib/libc.a(lib_a-memset.o)
                              /usr/local/ps3dev/libpsl1ght/ppu/lib/librt.a(fstat.o) (memset)
/usr/local/ps3dev/ppu/lib/gcc/powerpc64-ps3-elf/4.7.0/../../../../powerpc64-ps3-elf/lib/libc.a(lib_a-mlock.o)
                              /usr/local/ps3dev/ppu/lib/gcc/powerpc64-ps3-elf/4.7.0/../../../../powerpc64-ps3-elf/lib/libc.a(lib_a-mallocr.o) (__malloc_lock)
/usr/local/ps3dev/ppu/lib/gcc/powerpc64-ps3-elf/4.7.0/../../../../powerpc64-ps3-elf/lib/libc.a(lib_a-sscanf.o)
                              /usr/local/ps3dev/libpsl1ght/ppu/lib/librt.a(socket.o) (sscanf)
/usr/local/ps3dev/ppu/lib/gcc/powerpc64-ps3-elf/4.7.0/../../../../powerpc64-ps3-elf/lib/libc.a(lib_a-stdio.o)
                              /usr/local/ps3dev/ppu/lib/gcc/powerpc64-ps3-elf/4.7.0/../../../../powerpc64-ps3-elf/lib/libc.a(lib_a-sscanf.o) (__seofread)
/usr/local/ps3dev/ppu/lib/gcc/powerpc64-ps3-elf/4.7.0/../../../../powerpc64-ps3-elf/lib/libc.a(lib_a-strlen.o)
                              /usr/local/ps3dev/ppu/lib/gcc/powerpc64-ps3-elf/4.7.0/../../../../powerpc64-ps3-elf/lib/libc.a(lib_a-sscanf.o) (strlen)
/usr/local/ps3dev/ppu/lib/gcc/powerpc64-ps3-elf/4.7.0/../../../../powerpc64-ps3-elf/lib/libc.a(lib_a-strncpy.o)
                              /usr/local/ps3dev/libpsl1ght/ppu/lib/librt.a(dirent.o) (strncpy)
/usr/local/ps3dev/ppu/lib/gcc/powerpc64-ps3-elf/4.7.0/../../../../powerpc64-ps3-elf/lib/libc.a(lib_a-svfscanf.o)
                              /usr/local/ps3dev/ppu/lib/gcc/powerpc64-ps3-elf/4.7.0/../../../../powerpc64-ps3-elf/lib/libc.a(lib_a-sscanf.o) (__ssvfscanf_r)
/usr/local/ps3dev/ppu/lib/gcc/powerpc64-ps3-elf/4.7.0/../../../../powerpc64-ps3-elf/lib/libc.a(lib_a-__call_atexit.o)
                              /usr/local/ps3dev/ppu/lib/gcc/powerpc64-ps3-elf/4.7.0/../../../../powerpc64-ps3-elf/lib/libc.a(lib_a-exit.o) (__call_exitprocs)
/usr/local/ps3dev/ppu/lib/gcc/powerpc64-ps3-elf/4.7.0/../../../../powerpc64-ps3-elf/lib/libc.a(lib_a-ctype_.o)
                              /usr/local/ps3dev/ppu/lib/gcc/powerpc64-ps3-elf/4.7.0/../../../../powerpc64-ps3-elf/lib/libc.a(lib_a-svfscanf.o) (__ctype_ptr__)
/usr/local/ps3dev/ppu/lib/gcc/powerpc64-ps3-elf/4.7.0/../../../../powerpc64-ps3-elf/lib/libc.a(lib_a-freer.o)
                              /usr/local/ps3dev/ppu/lib/gcc/powerpc64-ps3-elf/4.7.0/../../../../powerpc64-ps3-elf/lib/libc.a(lib_a-malloc.o) (_free_r)
/usr/local/ps3dev/ppu/lib/gcc/powerpc64-ps3-elf/4.7.0/../../../../powerpc64-ps3-elf/lib/libc.a(lib_a-iswspace.o)
                              /usr/local/ps3dev/ppu/lib/gcc/powerpc64-ps3-elf/4.7.0/../../../../powerpc64-ps3-elf/lib/libc.a(lib_a-svfscanf.o) (iswspace)
/usr/local/ps3dev/ppu/lib/gcc/powerpc64-ps3-elf/4.7.0/../../../../powerpc64-ps3-elf/lib/libc.a(lib_a-locale.o)
                              /usr/local/ps3dev/ppu/lib/gcc/powerpc64-ps3-elf/4.7.0/../../../../powerpc64-ps3-elf/lib/libc.a(lib_a-svfscanf.o) (__locale_mb_cur_max)
/usr/local/ps3dev/ppu/lib/gcc/powerpc64-ps3-elf/4.7.0/../../../../powerpc64-ps3-elf/lib/libc.a(lib_a-lock_recursive.o)
                              /usr/local/ps3dev/ppu/lib/gcc/powerpc64-ps3-elf/4.7.0/../../../../powerpc64-ps3-elf/lib/libc.a(lib_a-mlock.o) (__libc_lock_acquire_recursive)
/usr/local/ps3dev/ppu/lib/gcc/powerpc64-ps3-elf/4.7.0/../../../../powerpc64-ps3-elf/lib/libc.a(lib_a-mbrtowc.o)
                              /usr/local/ps3dev/ppu/lib/gcc/powerpc64-ps3-elf/4.7.0/../../../../powerpc64-ps3-elf/lib/libc.a(lib_a-svfscanf.o) (_mbrtowc_r)
/usr/local/ps3dev/ppu/lib/gcc/powerpc64-ps3-elf/4.7.0/../../../../powerpc64-ps3-elf/lib/libc.a(lib_a-mbtowc_r.o)
                              /usr/local/ps3dev/ppu/lib/gcc/powerpc64-ps3-elf/4.7.0/../../../../powerpc64-ps3-elf/lib/libc.a(lib_a-mbrtowc.o) (__mbtowc)
/usr/local/ps3dev/ppu/lib/gcc/powerpc64-ps3-elf/4.7.0/../../../../powerpc64-ps3-elf/lib/libc.a(lib_a-sccl.o)
                              /usr/local/ps3dev/ppu/lib/gcc/powerpc64-ps3-elf/4.7.0/../../../../powerpc64-ps3-elf/lib/libc.a(lib_a-svfscanf.o) (__sccl)
/usr/local/ps3dev/ppu/lib/gcc/powerpc64-ps3-elf/4.7.0/../../../../powerpc64-ps3-elf/lib/libc.a(lib_a-sf_nan.o)
                              /usr/local/ps3dev/ppu/lib/gcc/powerpc64-ps3-elf/4.7.0/../../../../powerpc64-ps3-elf/lib/libc.a(lib_a-svfscanf.o) (nanf)
/usr/local/ps3dev/ppu/lib/gcc/powerpc64-ps3-elf/4.7.0/../../../../powerpc64-ps3-elf/lib/libc.a(lib_a-s_fpclassify.o)
                              /usr/local/ps3dev/ppu/lib/gcc/powerpc64-ps3-elf/4.7.0/../../../../powerpc64-ps3-elf/lib/libc.a(lib_a-svfscanf.o) (__fpclassifyd)
/usr/local/ps3dev/ppu/lib/gcc/powerpc64-ps3-elf/4.7.0/../../../../powerpc64-ps3-elf/lib/libc.a(lib_a-sprintf.o)
                              /usr/local/ps3dev/ppu/lib/gcc/powerpc64-ps3-elf/4.7.0/../../../../powerpc64-ps3-elf/lib/libc.a(lib_a-svfscanf.o) (sprintf)
/usr/local/ps3dev/ppu/lib/gcc/powerpc64-ps3-elf/4.7.0/../../../../powerpc64-ps3-elf/lib/libc.a(lib_a-strcmp.o)
                              /usr/local/ps3dev/ppu/lib/gcc/powerpc64-ps3-elf/4.7.0/../../../../powerpc64-ps3-elf/lib/libc.a(lib_a-locale.o) (strcmp)
/usr/local/ps3dev/ppu/lib/gcc/powerpc64-ps3-elf/4.7.0/../../../../powerpc64-ps3-elf/lib/libc.a(lib_a-strtod.o)
                              /usr/local/ps3dev/ppu/lib/gcc/powerpc64-ps3-elf/4.7.0/../../../../powerpc64-ps3-elf/lib/libc.a(lib_a-svfscanf.o) (_strtod_r)
/usr/local/ps3dev/ppu/lib/gcc/powerpc64-ps3-elf/4.7.0/../../../../powerpc64-ps3-elf/lib/libc.a(lib_a-strtoll_r.o)
                              /usr/local/ps3dev/ppu/lib/gcc/powerpc64-ps3-elf/4.7.0/../../../../powerpc64-ps3-elf/lib/libc.a(lib_a-svfscanf.o) (_strtoll_r)
/usr/local/ps3dev/ppu/lib/gcc/powerpc64-ps3-elf/4.7.0/../../../../powerpc64-ps3-elf/lib/libc.a(lib_a-strtol.o)
                              /usr/local/ps3dev/ppu/lib/gcc/powerpc64-ps3-elf/4.7.0/../../../../powerpc64-ps3-elf/lib/libc.a(lib_a-svfscanf.o) (_strtol_r)
/usr/local/ps3dev/ppu/lib/gcc/powerpc64-ps3-elf/4.7.0/../../../../powerpc64-ps3-elf/lib/libc.a(lib_a-strtoull_r.o)
                              /usr/local/ps3dev/ppu/lib/gcc/powerpc64-ps3-elf/4.7.0/../../../../powerpc64-ps3-elf/lib/libc.a(lib_a-svfscanf.o) (_strtoull_r)
/usr/local/ps3dev/ppu/lib/gcc/powerpc64-ps3-elf/4.7.0/../../../../powerpc64-ps3-elf/lib/libc.a(lib_a-strtoul.o)
                              /usr/local/ps3dev/ppu/lib/gcc/powerpc64-ps3-elf/4.7.0/../../../../powerpc64-ps3-elf/lib/libc.a(lib_a-svfscanf.o) (_strtoul_r)
/usr/local/ps3dev/ppu/lib/gcc/powerpc64-ps3-elf/4.7.0/../../../../powerpc64-ps3-elf/lib/libc.a(lib_a-svfiscanf.o)
                              /usr/local/ps3dev/ppu/lib/gcc/powerpc64-ps3-elf/4.7.0/../../../../powerpc64-ps3-elf/lib/libc.a(lib_a-svfscanf.o) (_sungetc_r)
/usr/local/ps3dev/ppu/lib/gcc/powerpc64-ps3-elf/4.7.0/../../../../powerpc64-ps3-elf/lib/libc.a(lib_a-svfprintf.o)
                              /usr/local/ps3dev/ppu/lib/gcc/powerpc64-ps3-elf/4.7.0/../../../../powerpc64-ps3-elf/lib/libc.a(lib_a-sprintf.o) (_svfprintf_r)
/usr/local/ps3dev/ppu/lib/gcc/powerpc64-ps3-elf/4.7.0/../../../../powerpc64-ps3-elf/lib/libc.a(lib_a-ungetc.o)
                              /usr/local/ps3dev/ppu/lib/gcc/powerpc64-ps3-elf/4.7.0/../../../../powerpc64-ps3-elf/lib/libc.a(lib_a-svfiscanf.o) (__submore)
/usr/local/ps3dev/ppu/lib/gcc/powerpc64-ps3-elf/4.7.0/../../../../powerpc64-ps3-elf/lib/libc.a(lib_a-__atexit.o)
                              /usr/local/ps3dev/ppu/lib/gcc/powerpc64-ps3-elf/4.7.0/../../../../powerpc64-ps3-elf/lib/libc.a(lib_a-__call_atexit.o) (__atexit_lock)
/usr/local/ps3dev/ppu/lib/gcc/powerpc64-ps3-elf/4.7.0/../../../../powerpc64-ps3-elf/lib/libc.a(lib_a-dtoa.o)
                              /usr/local/ps3dev/ppu/lib/gcc/powerpc64-ps3-elf/4.7.0/../../../../powerpc64-ps3-elf/lib/libc.a(lib_a-svfprintf.o) (_dtoa_r)
/usr/local/ps3dev/ppu/lib/gcc/powerpc64-ps3-elf/4.7.0/../../../../powerpc64-ps3-elf/lib/libc.a(lib_a-fflush.o)
                              /usr/local/ps3dev/ppu/lib/gcc/powerpc64-ps3-elf/4.7.0/../../../../powerpc64-ps3-elf/lib/libc.a(lib_a-ungetc.o) (_fflush_r)
/usr/local/ps3dev/ppu/lib/gcc/powerpc64-ps3-elf/4.7.0/../../../../powerpc64-ps3-elf/lib/libc.a(lib_a-findfp.o)
                              /usr/local/ps3dev/ppu/lib/gcc/powerpc64-ps3-elf/4.7.0/../../../../powerpc64-ps3-elf/lib/libc.a(lib_a-ungetc.o) (__sinit)
/usr/local/ps3dev/ppu/lib/gcc/powerpc64-ps3-elf/4.7.0/../../../../powerpc64-ps3-elf/lib/libc.a(lib_a-fwalk.o)
                              /usr/local/ps3dev/ppu/lib/gcc/powerpc64-ps3-elf/4.7.0/../../../../powerpc64-ps3-elf/lib/libc.a(lib_a-findfp.o) (_fwalk)
/usr/local/ps3dev/ppu/lib/gcc/powerpc64-ps3-elf/4.7.0/../../../../powerpc64-ps3-elf/lib/libc.a(lib_a-gdtoa-gethex.o)
                              /usr/local/ps3dev/ppu/lib/gcc/powerpc64-ps3-elf/4.7.0/../../../../powerpc64-ps3-elf/lib/libc.a(lib_a-strtod.o) (__gethex)
/usr/local/ps3dev/ppu/lib/gcc/powerpc64-ps3-elf/4.7.0/../../../../powerpc64-ps3-elf/lib/libc.a(lib_a-gdtoa-hexnan.o)
                              /usr/local/ps3dev/ppu/lib/gcc/powerpc64-ps3-elf/4.7.0/../../../../powerpc64-ps3-elf/lib/libc.a(lib_a-strtod.o) (__hexnan)
/usr/local/ps3dev/ppu/lib/gcc/powerpc64-ps3-elf/4.7.0/../../../../powerpc64-ps3-elf/lib/libc.a(lib_a-lock_internal.o)
                              /usr/local/ps3dev/ppu/lib/gcc/powerpc64-ps3-elf/4.7.0/../../../../powerpc64-ps3-elf/lib/libc.a(lib_a-lock_recursive.o) (__libc_auto_lock_allocate)
/usr/local/ps3dev/ppu/lib/gcc/powerpc64-ps3-elf/4.7.0/../../../../powerpc64-ps3-elf/lib/libc.a(lib_a-memchr.o)
                              /usr/local/ps3dev/ppu/lib/gcc/powerpc64-ps3-elf/4.7.0/../../../../powerpc64-ps3-elf/lib/libc.a(lib_a-svfprintf.o) (memchr)
/usr/local/ps3dev/ppu/lib/gcc/powerpc64-ps3-elf/4.7.0/../../../../powerpc64-ps3-elf/lib/libc.a(lib_a-memcpy.o)
                              /usr/local/ps3dev/ppu/lib/gcc/powerpc64-ps3-elf/4.7.0/../../../../powerpc64-ps3-elf/lib/libc.a(lib_a-strtod.o) (memcpy)
/usr/local/ps3dev/ppu/lib/gcc/powerpc64-ps3-elf/4.7.0/../../../../powerpc64-ps3-elf/lib/libc.a(lib_a-mprec.o)
                              /usr/local/ps3dev/ppu/lib/gcc/powerpc64-ps3-elf/4.7.0/../../../../powerpc64-ps3-elf/lib/libc.a(lib_a-strtod.o) (_Balloc)
/usr/local/ps3dev/ppu/lib/gcc/powerpc64-ps3-elf/4.7.0/../../../../powerpc64-ps3-elf/lib/libc.a(lib_a-reallocr.o)
                              /usr/local/ps3dev/ppu/lib/gcc/powerpc64-ps3-elf/4.7.0/../../../../powerpc64-ps3-elf/lib/libc.a(lib_a-ungetc.o) (_realloc_r)
/usr/local/ps3dev/ppu/lib/gcc/powerpc64-ps3-elf/4.7.0/../../../../powerpc64-ps3-elf/lib/libc.a(lib_a-strncmp.o)
                              /usr/local/ps3dev/ppu/lib/gcc/powerpc64-ps3-elf/4.7.0/../../../../powerpc64-ps3-elf/lib/libc.a(lib_a-strtod.o) (strncmp)
/usr/local/ps3dev/ppu/lib/gcc/powerpc64-ps3-elf/4.7.0/../../../../powerpc64-ps3-elf/lib/libc.a(lib_a-svfiprintf.o)
                              /usr/local/ps3dev/ppu/lib/gcc/powerpc64-ps3-elf/4.7.0/../../../../powerpc64-ps3-elf/lib/libc.a(lib_a-svfprintf.o) (__ssprint_r)
/usr/local/ps3dev/ppu/lib/gcc/powerpc64-ps3-elf/4.7.0/../../../../powerpc64-ps3-elf/lib/libc.a(lib_a-abort.o)
                              /usr/local/ps3dev/ppu/lib/gcc/powerpc64-ps3-elf/4.7.0/../../../../powerpc64-ps3-elf/lib/libc.a(lib_a-lock_internal.o) (abort)
/usr/local/ps3dev/ppu/lib/gcc/powerpc64-ps3-elf/4.7.0/../../../../powerpc64-ps3-elf/lib/libc.a(lib_a-callocr.o)
                              /usr/local/ps3dev/ppu/lib/gcc/powerpc64-ps3-elf/4.7.0/../../../../powerpc64-ps3-elf/lib/libc.a(lib_a-mprec.o) (_calloc_r)
/usr/local/ps3dev/ppu/lib/gcc/powerpc64-ps3-elf/4.7.0/../../../../powerpc64-ps3-elf/lib/libc.a(lib_a-fclose.o)
                              /usr/local/ps3dev/ppu/lib/gcc/powerpc64-ps3-elf/4.7.0/../../../../powerpc64-ps3-elf/lib/libc.a(lib_a-findfp.o) (fclose)
/usr/local/ps3dev/ppu/lib/gcc/powerpc64-ps3-elf/4.7.0/../../../../powerpc64-ps3-elf/lib/libc.a(lib_a-memmove.o)
                              /usr/local/ps3dev/ppu/lib/gcc/powerpc64-ps3-elf/4.7.0/../../../../powerpc64-ps3-elf/lib/libc.a(lib_a-reallocr.o) (memmove)
/usr/local/ps3dev/ppu/lib/gcc/powerpc64-ps3-elf/4.7.0/../../../../powerpc64-ps3-elf/lib/libc.a(lib_a-signal.o)
                              /usr/local/ps3dev/ppu/lib/gcc/powerpc64-ps3-elf/4.7.0/../../../../powerpc64-ps3-elf/lib/libc.a(lib_a-abort.o) (raise)
/usr/local/ps3dev/ppu/lib/gcc/powerpc64-ps3-elf/4.7.0/../../../../powerpc64-ps3-elf/lib/libsysbase.a(close.o)
                              /usr/local/ps3dev/ppu/lib/gcc/powerpc64-ps3-elf/4.7.0/../../../../powerpc64-ps3-elf/lib/libc.a(lib_a-stdio.o) (_close_r)
/usr/local/ps3dev/ppu/lib/gcc/powerpc64-ps3-elf/4.7.0/../../../../powerpc64-ps3-elf/lib/libsysbase.a(sbrk.o)
                              /usr/local/ps3dev/ppu/lib/gcc/powerpc64-ps3-elf/4.7.0/../../../../powerpc64-ps3-elf/lib/libc.a(lib_a-mallocr.o) (_sbrk_r)
/usr/local/ps3dev/ppu/lib/gcc/powerpc64-ps3-elf/4.7.0/../../../../powerpc64-ps3-elf/lib/libsysbase.a(_exit.o)
                              /usr/local/ps3dev/ppu/lib/gcc/powerpc64-ps3-elf/4.7.0/../../../../powerpc64-ps3-elf/lib/libc.a(lib_a-exit.o) (_exit)
/usr/local/ps3dev/ppu/lib/gcc/powerpc64-ps3-elf/4.7.0/../../../../powerpc64-ps3-elf/lib/libsysbase.a(lseek.o)
                              /usr/local/ps3dev/ppu/lib/gcc/powerpc64-ps3-elf/4.7.0/../../../../powerpc64-ps3-elf/lib/libc.a(lib_a-stdio.o) (_lseek_r)
/usr/local/ps3dev/ppu/lib/gcc/powerpc64-ps3-elf/4.7.0/../../../../powerpc64-ps3-elf/lib/libsysbase.a(read.o)
                              /usr/local/ps3dev/ppu/lib/gcc/powerpc64-ps3-elf/4.7.0/../../../../powerpc64-ps3-elf/lib/libc.a(lib_a-stdio.o) (_read_r)
/usr/local/ps3dev/ppu/lib/gcc/powerpc64-ps3-elf/4.7.0/../../../../powerpc64-ps3-elf/lib/libsysbase.a(write.o)
                              /usr/local/ps3dev/ppu/lib/gcc/powerpc64-ps3-elf/4.7.0/../../../../powerpc64-ps3-elf/lib/libc.a(lib_a-stdio.o) (_write_r)
/usr/local/ps3dev/ppu/lib/gcc/powerpc64-ps3-elf/4.7.0/../../../../powerpc64-ps3-elf/lib/libsysbase.a(lock.o)
                              /usr/local/ps3dev/ppu/lib/gcc/powerpc64-ps3-elf/4.7.0/../../../../powerpc64-ps3-elf/lib/libc.a(lib_a-lock_recursive.o) (sys_lwmutex_create)
/usr/local/ps3dev/ppu/lib/gcc/powerpc64-ps3-elf/4.7.0/../../../../powerpc64-ps3-elf/lib/libsysbase.a(getpid.o)
                              /usr/local/ps3dev/ppu/lib/gcc/powerpc64-ps3-elf/4.7.0/../../../../powerpc64-ps3-elf/lib/libc.a(lib_a-signal.o) (_getpid_r)
/usr/local/ps3dev/ppu/lib/gcc/powerpc64-ps3-elf/4.7.0/../../../../powerpc64-ps3-elf/lib/libsysbase.a(kill.o)
                              /usr/local/ps3dev/ppu/lib/gcc/powerpc64-ps3-elf/4.7.0/../../../../powerpc64-ps3-elf/lib/libc.a(lib_a-signal.o) (_kill_r)

Allocating common symbols
Common symbol       size              file

__hexdig            0x100             /usr/local/ps3dev/ppu/lib/gcc/powerpc64-ps3-elf/4.7.0/../../../../powerpc64-ps3-elf/lib/libc.a(lib_a-gdtoa-gethex.o)

Discarded input sections

 .note.GNU-stack
                0x0000000000000000        0x0 /usr/local/ps3dev/libpsl1ght/ppu/lib/liblv2.a(sprx.o)

Memory Configuration

Name             Origin             Length             Attributes
*default*        0x0000000000000000 0xffffffffffffffff

Linker script and memory map

                0x0000000000010000                PROVIDE (__executable_start, 0x10000)
                0x0000000000010200                . = (0x10000 + SIZEOF_HEADERS)

.interp
 *(.interp)

.hash
 *(.hash)

.dynsym
 *(.dynsym)

.dynstr
 *(.dynstr)

.gnu.version
 *(.gnu.version)

.gnu.version_d
 *(.gnu.version_d)

.gnu.version_r
 *(.gnu.version_r)

.rel.dyn
 *(.rel.init)
 *(.rel.text .rel.text.* .rel.gnu.linkonce.t.*)
 *(.rel.fini)
 *(.rel.rodata .rel.rodata.* .rel.gnu.linkonce.r.*)
 *(.rel.data.rel.ro*)
 *(.rel.data .rel.data.* .rel.gnu.linkonce.d.*)
 *(.rel.tdata .rel.tdata.* .rel.gnu.linkonce.td.*)
 *(.rel.tbss .rel.tbss.* .rel.gnu.linkonce.tb.*)
 *(.rel.ctors)
 *(.rel.dtors)
 *(.rel.got)
 *(.rel.sdata .rel.sdata.* .rel.gnu.linkonce.s.*)
 *(.rel.sbss .rel.sbss.* .rel.gnu.linkonce.sb.*)
 *(.rel.sdata2 .rel.sdata2.* .rel.gnu.linkonce.s2.*)
 *(.rel.sbss2 .rel.sbss2.* .rel.gnu.linkonce.sb2.*)
 *(.rel.bss .rel.bss.* .rel.gnu.linkonce.b.*)

.rela.dyn       0x0000000000010200        0x0
 *(.rela.init)
 *(.rela.text .rela.text.* .rela.gnu.linkonce.t.*)
 *(.rela.fini)
 *(.rela.rodata .rela.rodata.* .rela.gnu.linkonce.r.*)
 *(.rela.data .rela.data.* .rela.gnu.linkonce.d.*)
 *(.rela.tdata .rela.tdata.* .rela.gnu.linkonce.td.*)
 *(.rela.tbss .rela.tbss.* .rela.gnu.linkonce.tb.*)
 *(.rela.ctors)
 *(.rela.dtors)
 *(.rela.got)
 *(.rela.toc)
 .rela.toc      0x0000000000000000        0x0 linker stubs
 *(.rela.sdata .rela.sdata.* .rela.gnu.linkonce.s.*)
 *(.rela.sbss .rela.sbss.* .rela.gnu.linkonce.sb.*)
 *(.rela.sdata2 .rela.sdata2.* .rela.gnu.linkonce.s2.*)
 *(.rela.sbss2 .rela.sbss2.* .rela.gnu.linkonce.sb2.*)
 *(.rela.bss .rela.bss.* .rela.gnu.linkonce.b.*)
 .rela.iplt     0x0000000000000000        0x0 linker stubs
 .rela.sys_proc_prx_param
                0x0000000000000000        0x0 linker stubs
 .rela.opd      0x0000000000000000        0x0 linker stubs

.rel.plt
 *(.rel.plt)

.rela.plt
 *(.rela.plt)

.rela.tocbss
 *(.rela.tocbss)

.init           0x0000000000010200       0x2c
 *(.init)
 .init          0x0000000000010200        0xc /usr/local/ps3dev/ppu/lib/gcc/powerpc64-ps3-elf/4.7.0/../../../../powerpc64-ps3-elf/lib/lv2-crti.o
                0x0000000000010200                ._init
 .init          0x000000000001020c        0x8 /usr/local/ps3dev/ppu/lib/gcc/powerpc64-ps3-elf/4.7.0/crtbegin.o
 .init          0x0000000000010214        0x8 /usr/local/ps3dev/ppu/lib/gcc/powerpc64-ps3-elf/4.7.0/crtend.o
 .init          0x000000000001021c       0x10 /usr/local/ps3dev/ppu/lib/gcc/powerpc64-ps3-elf/4.7.0/../../../../powerpc64-ps3-elf/lib/lv2-crtn.o

.text           0x0000000000010230    0x13834
 *(.text .stub .text.* .gnu.linkonce.t.*)
 .text          0x0000000000010230        0x0 /usr/local/ps3dev/ppu/lib/gcc/powerpc64-ps3-elf/4.7.0/../../../../powerpc64-ps3-elf/lib/lv2-crti.o
 .text          0x0000000000010230        0x0 /usr/local/ps3dev/ppu/lib/gcc/powerpc64-ps3-elf/4.7.0/crtbegin.o
 .text.deregister_tm_clones
                0x0000000000010230       0x5c /usr/local/ps3dev/ppu/lib/gcc/powerpc64-ps3-elf/4.7.0/crtbegin.o
 *fill*         0x000000000001028c        0x4 60000000
 .text.register_tm_clones
                0x0000000000010290       0x60 /usr/local/ps3dev/ppu/lib/gcc/powerpc64-ps3-elf/4.7.0/crtbegin.o
 .text.__do_global_dtors_aux
                0x00000000000102f0       0xcc /usr/local/ps3dev/ppu/lib/gcc/powerpc64-ps3-elf/4.7.0/crtbegin.o
 *fill*         0x00000000000103bc        0x4 60000000
 .text.frame_dummy
                0x00000000000103c0       0x70 /usr/local/ps3dev/ppu/lib/gcc/powerpc64-ps3-elf/4.7.0/crtbegin.o
 .text          0x0000000000010430       0x58 /usr/local/ps3dev/ppu/lib/gcc/powerpc64-ps3-elf/4.7.0/../../../../powerpc64-ps3-elf/lib/lv2-crt0.o
                0x0000000000010430                ._start
 .text.startup.__syscalls_init
                0x0000000000010488      0x12c /usr/local/ps3dev/ppu/lib/gcc/powerpc64-ps3-elf/4.7.0/../../../../powerpc64-ps3-elf/lib/lv2-crt0.o
 *fill*         0x00000000000105b4        0x4 60000000
 .text._initialize
                0x00000000000105b8       0x40 /usr/local/ps3dev/ppu/lib/gcc/powerpc64-ps3-elf/4.7.0/../../../../powerpc64-ps3-elf/lib/lv2-crt0.o
                0x00000000000105b8                ._initialize
 .text          0x00000000000105f8        0x0 /usr/local/ps3dev/ppu/lib/gcc/powerpc64-ps3-elf/4.7.0/../../../../powerpc64-ps3-elf/lib/lv2-sprx.o
 .text          0x00000000000105f8        0x0 /usr/local/ps3dev/libpsl1ght/ppu/lib/librt.a(sbrk.o)
 .text.startup.sbrk_init
                0x00000000000105f8       0xb4 /usr/local/ps3dev/libpsl1ght/ppu/lib/librt.a(sbrk.o)
 *fill*         0x00000000000106ac        0x4 60000000
 .text.sbrk_deinit
                0x00000000000106b0       0xc8 /usr/local/ps3dev/libpsl1ght/ppu/lib/librt.a(sbrk.o)
 .text.__librt_sbrk_r
                0x0000000000010778      0x29c /usr/local/ps3dev/libpsl1ght/ppu/lib/librt.a(sbrk.o)
                0x0000000000010778                .__librt_sbrk_r
 .text          0x0000000000010a14        0x0 /usr/local/ps3dev/libpsl1ght/ppu/lib/librt.a(exit.o)
 *fill*         0x0000000000010a14        0x4 60000000
 .text.__librt_exit
                0x0000000000010a18       0x30 /usr/local/ps3dev/libpsl1ght/ppu/lib/librt.a(exit.o)
                0x0000000000010a18                .__librt_exit
 .text          0x0000000000010a48        0x0 /usr/local/ps3dev/libpsl1ght/ppu/lib/librt.a(close.o)
 .text.__librt_close_r
                0x0000000000010a48       0x88 /usr/local/ps3dev/libpsl1ght/ppu/lib/librt.a(close.o)
                0x0000000000010a48                .__librt_close_r
 .text          0x0000000000010ad0        0x0 /usr/local/ps3dev/libpsl1ght/ppu/lib/librt.a(lseek.o)
 .text.__librt_lseek_r
                0x0000000000010ad0       0x8c /usr/local/ps3dev/libpsl1ght/ppu/lib/librt.a(lseek.o)
                0x0000000000010ad0                .__librt_lseek_r
 *fill*         0x0000000000010b5c        0x4 60000000
 .text.__librt_lseek64_r
                0x0000000000010b60       0x8c /usr/local/ps3dev/libpsl1ght/ppu/lib/librt.a(lseek.o)
                0x0000000000010b60                .__librt_lseek64_r
 .text          0x0000000000010bec        0x0 /usr/local/ps3dev/libpsl1ght/ppu/lib/librt.a(read.o)
 *fill*         0x0000000000010bec        0x4 60000000
 .text.__librt_read_r
                0x0000000000010bf0      0x110 /usr/local/ps3dev/libpsl1ght/ppu/lib/librt.a(read.o)
                0x0000000000010bf0                .__librt_read_r
 .text          0x0000000000010d00        0x0 /usr/local/ps3dev/libpsl1ght/ppu/lib/librt.a(open.o)
 .text.__librt_open_r
                0x0000000000010d00      0x180 /usr/local/ps3dev/libpsl1ght/ppu/lib/librt.a(open.o)
                0x0000000000010d00                .__librt_open_r
 .text          0x0000000000010e80        0x0 /usr/local/ps3dev/libpsl1ght/ppu/lib/librt.a(sleep.o)
 .text.__librt_usleep_r
                0x0000000000010e80       0x50 /usr/local/ps3dev/libpsl1ght/ppu/lib/librt.a(sleep.o)
                0x0000000000010e80                .__librt_usleep_r
 .text.__librt_sleep_r
                0x0000000000010ed0       0x8c /usr/local/ps3dev/libpsl1ght/ppu/lib/librt.a(sleep.o)
                0x0000000000010ed0                .__librt_sleep_r
 .text          0x0000000000010f5c        0x0 /usr/local/ps3dev/libpsl1ght/ppu/lib/librt.a(write.o)
 *fill*         0x0000000000010f5c        0x4 60000000
 .text.__librt_write_r
                0x0000000000010f60      0x124 /usr/local/ps3dev/libpsl1ght/ppu/lib/librt.a(write.o)
                0x0000000000010f60                .__librt_write_r
 .text          0x0000000000011084        0x0 /usr/local/ps3dev/libpsl1ght/ppu/lib/librt.a(fstat.o)
 *fill*         0x0000000000011084        0x4 60000000
 .text.convertLv2Stat
                0x0000000000011088      0x234 /usr/local/ps3dev/libpsl1ght/ppu/lib/librt.a(fstat.o)
 *fill*         0x00000000000112bc        0x4 60000000
 .text.__librt_fstat_r
                0x00000000000112c0       0x88 /usr/local/ps3dev/libpsl1ght/ppu/lib/librt.a(fstat.o)
                0x00000000000112c0                .__librt_fstat_r
 .text.__librt_fstat64_r
                0x0000000000011348       0x88 /usr/local/ps3dev/libpsl1ght/ppu/lib/librt.a(fstat.o)
                0x0000000000011348                .__librt_fstat64_r
 .text.__librt_stat_r
                0x00000000000113d0       0x88 /usr/local/ps3dev/libpsl1ght/ppu/lib/librt.a(fstat.o)
                0x00000000000113d0                .__librt_stat_r
 .text.__librt_stat64_r
                0x0000000000011458       0x88 /usr/local/ps3dev/libpsl1ght/ppu/lib/librt.a(fstat.o)
                0x0000000000011458                .__librt_stat64_r
 .text          0x00000000000114e0        0x0 /usr/local/ps3dev/libpsl1ght/ppu/lib/librt.a(socket.o)
 .text.accept   0x00000000000114e0       0xac /usr/local/ps3dev/libpsl1ght/ppu/lib/librt.a(socket.o)
                0x00000000000114e0                .accept
 *fill*         0x000000000001158c        0x4 60000000
 .text.bind     0x0000000000011590       0x48 /usr/local/ps3dev/libpsl1ght/ppu/lib/librt.a(socket.o)
                0x0000000000011590                .bind
 .text.connect  0x00000000000115d8       0x48 /usr/local/ps3dev/libpsl1ght/ppu/lib/librt.a(socket.o)
                0x00000000000115d8                .connect
 .text.listen   0x0000000000011620       0x48 /usr/local/ps3dev/libpsl1ght/ppu/lib/librt.a(socket.o)
                0x0000000000011620                .listen
 .text.socket   0x0000000000011668       0x54 /usr/local/ps3dev/libpsl1ght/ppu/lib/librt.a(socket.o)
                0x0000000000011668                .socket
 *fill*         0x00000000000116bc        0x4 60000000
 .text.send     0x00000000000116c0       0x50 /usr/local/ps3dev/libpsl1ght/ppu/lib/librt.a(socket.o)
                0x00000000000116c0                .send
 .text.sendto   0x0000000000011710       0x48 /usr/local/ps3dev/libpsl1ght/ppu/lib/librt.a(socket.o)
                0x0000000000011710                .sendto
 .text.recv     0x0000000000011758       0x50 /usr/local/ps3dev/libpsl1ght/ppu/lib/librt.a(socket.o)
                0x0000000000011758                .recv
 .text.recvfrom
                0x00000000000117a8       0xa0 /usr/local/ps3dev/libpsl1ght/ppu/lib/librt.a(socket.o)
                0x00000000000117a8                .recvfrom
 .text.shutdown
                0x0000000000011848       0x48 /usr/local/ps3dev/libpsl1ght/ppu/lib/librt.a(socket.o)
                0x0000000000011848                .shutdown
 .text.inet_aton
                0x0000000000011890       0xbc /usr/local/ps3dev/libpsl1ght/ppu/lib/librt.a(socket.o)
                0x0000000000011890                .inet_aton
 *fill*         0x000000000001194c        0x4 60000000
 .text.inet_pton
                0x0000000000011950       0x48 /usr/local/ps3dev/libpsl1ght/ppu/lib/librt.a(socket.o)
                0x0000000000011950                .inet_pton
 .text.select   0x0000000000011998       0x3c /usr/local/ps3dev/libpsl1ght/ppu/lib/librt.a(socket.o)
                0x0000000000011998                .select
 *fill*         0x00000000000119d4        0x4 60000000
 .text.closesocket
                0x00000000000119d8       0x48 /usr/local/ps3dev/libpsl1ght/ppu/lib/librt.a(socket.o)
                0x00000000000119d8                .closesocket
 .text          0x0000000000011a20        0x0 /usr/local/ps3dev/libpsl1ght/ppu/lib/librt.a(lock.o)
 .text.__librt_sys_lwmutex_create_r
                0x0000000000011a20       0x38 /usr/local/ps3dev/libpsl1ght/ppu/lib/librt.a(lock.o)
                0x0000000000011a20                .__librt_sys_lwmutex_create_r
 .text.__librt_sys_lwmutex_destroy_r
                0x0000000000011a58       0x34 /usr/local/ps3dev/libpsl1ght/ppu/lib/librt.a(lock.o)
                0x0000000000011a58                .__librt_sys_lwmutex_destroy_r
 *fill*         0x0000000000011a8c        0x4 60000000
 .text.__librt_sys_lwmutex_lock_r
                0x0000000000011a90       0x38 /usr/local/ps3dev/libpsl1ght/ppu/lib/librt.a(lock.o)
                0x0000000000011a90                .__librt_sys_lwmutex_lock_r
 .text.__librt_sys_lwmutex_trylock_r
                0x0000000000011ac8       0x34 /usr/local/ps3dev/libpsl1ght/ppu/lib/librt.a(lock.o)
                0x0000000000011ac8                .__librt_sys_lwmutex_trylock_r
 *fill*         0x0000000000011afc        0x4 60000000
 .text.__librt_sys_lwmutex_unlock_r
                0x0000000000011b00       0x34 /usr/local/ps3dev/libpsl1ght/ppu/lib/librt.a(lock.o)
                0x0000000000011b00                .__librt_sys_lwmutex_unlock_r
 .text          0x0000000000011b34        0x0 /usr/local/ps3dev/libpsl1ght/ppu/lib/librt.a(dirent.o)
 *fill*         0x0000000000011b34        0x4 60000000
 .text.readdir_i
                0x0000000000011b38      0x10c /usr/local/ps3dev/libpsl1ght/ppu/lib/librt.a(dirent.o)
 *fill*         0x0000000000011c44        0x4 60000000
 .text.__librt_opendir_r
                0x0000000000011c48      0x13c /usr/local/ps3dev/libpsl1ght/ppu/lib/librt.a(dirent.o)
                0x0000000000011c48                .__librt_opendir_r
 *fill*         0x0000000000011d84        0x4 60000000
 .text.__librt_readdir_r
                0x0000000000011d88       0x80 /usr/local/ps3dev/libpsl1ght/ppu/lib/librt.a(dirent.o)
                0x0000000000011d88                .__librt_readdir_r
 .text.__librt_readdir_r_r
                0x0000000000011e08       0x54 /usr/local/ps3dev/libpsl1ght/ppu/lib/librt.a(dirent.o)
                0x0000000000011e08                .__librt_readdir_r_r
 *fill*         0x0000000000011e5c        0x4 60000000
 .text.__librt_closedir_r
                0x0000000000011e60       0x84 /usr/local/ps3dev/libpsl1ght/ppu/lib/librt.a(dirent.o)
                0x0000000000011e60                .__librt_closedir_r
 *fill*         0x0000000000011ee4        0x4 60000000
 .text.__librt_telldir_r
                0x0000000000011ee8       0x2c /usr/local/ps3dev/libpsl1ght/ppu/lib/librt.a(dirent.o)
                0x0000000000011ee8                .__librt_telldir_r
 *fill*         0x0000000000011f14        0x4 60000000
 .text.__librt_rewinddir_r
                0x0000000000011f18       0x18 /usr/local/ps3dev/libpsl1ght/ppu/lib/librt.a(dirent.o)
                0x0000000000011f18                .__librt_rewinddir_r
 .text.__librt_seekdir_r
                0x0000000000011f30       0x18 /usr/local/ps3dev/libpsl1ght/ppu/lib/librt.a(dirent.o)
                0x0000000000011f30                .__librt_seekdir_r
 .text          0x0000000000011f48        0x0 /usr/local/ps3dev/libpsl1ght/ppu/lib/librt.a(mkdir.o)
 .text.__librt_mkdir_r
                0x0000000000011f48       0x60 /usr/local/ps3dev/libpsl1ght/ppu/lib/librt.a(mkdir.o)
                0x0000000000011f48                .__librt_mkdir_r
 .text          0x0000000000011fa8        0x0 /usr/local/ps3dev/libpsl1ght/ppu/lib/librt.a(times.o)
 .text.__librt_times_r
                0x0000000000011fa8       0x1c /usr/local/ps3dev/libpsl1ght/ppu/lib/librt.a(times.o)
                0x0000000000011fa8                .__librt_times_r
 .text          0x0000000000011fc4        0x0 /usr/local/ps3dev/libpsl1ght/ppu/lib/librt.a(umask.o)
 *fill*         0x0000000000011fc4        0x4 60000000
 .text.__librt_umask_r
                0x0000000000011fc8       0x20 /usr/local/ps3dev/libpsl1ght/ppu/lib/librt.a(umask.o)
                0x0000000000011fc8                .__librt_umask_r
 .text          0x0000000000011fe8        0x0 /usr/local/ps3dev/libpsl1ght/ppu/lib/librt.a(lv2errno.o)
 .text.lv2error
                0x0000000000011fe8      0x3f8 /usr/local/ps3dev/libpsl1ght/ppu/lib/librt.a(lv2errno.o)
                0x0000000000011fe8                .lv2error
 .text.lv2errno
                0x00000000000123e0       0x68 /usr/local/ps3dev/libpsl1ght/ppu/lib/librt.a(lv2errno.o)
                0x00000000000123e0                .lv2errno
 .text.lv2errno_r
                0x0000000000012448       0x58 /usr/local/ps3dev/libpsl1ght/ppu/lib/librt.a(lv2errno.o)
                0x0000000000012448                .lv2errno_r
 .text          0x00000000000124a0        0x0 /usr/local/ps3dev/libpsl1ght/ppu/lib/librt.a(heap.o)
 .text.heapInit
                0x00000000000124a0       0xe8 /usr/local/ps3dev/libpsl1ght/ppu/lib/librt.a(heap.o)
                0x00000000000124a0                .heapInit
 .text.heapAllocate
                0x0000000000012588      0x17c /usr/local/ps3dev/libpsl1ght/ppu/lib/librt.a(heap.o)
                0x0000000000012588                .heapAllocate
 *fill*         0x0000000000012704        0x4 60000000
 .text.heapAllocateAligned
                0x0000000000012708      0x21c /usr/local/ps3dev/libpsl1ght/ppu/lib/librt.a(heap.o)
                0x0000000000012708                .heapAllocateAligned
 *fill*         0x0000000000012924        0x4 60000000
 .text.heapFree
                0x0000000000012928      0x230 /usr/local/ps3dev/libpsl1ght/ppu/lib/librt.a(heap.o)
                0x0000000000012928                .heapFree
 .text          0x0000000000012b58        0x0 /usr/local/ps3dev/libpsl1ght/ppu/lib/librt.a(chmod.o)
 .text.__librt_chmod_r
                0x0000000000012b58       0x54 /usr/local/ps3dev/libpsl1ght/ppu/lib/librt.a(chmod.o)
                0x0000000000012b58                .__librt_chmod_r
 .text          0x0000000000012bac        0x0 /usr/local/ps3dev/libpsl1ght/ppu/lib/librt.a(rmdir.o)
 *fill*         0x0000000000012bac        0x4 60000000
 .text.__librt_rmdir_r
                0x0000000000012bb0       0x50 /usr/local/ps3dev/libpsl1ght/ppu/lib/librt.a(rmdir.o)
                0x0000000000012bb0                .__librt_rmdir_r
 .text          0x0000000000012c00        0x0 /usr/local/ps3dev/libpsl1ght/ppu/lib/librt.a(isatty.o)
 .text.__librt_isatty_r
                0x0000000000012c00       0x2c /usr/local/ps3dev/libpsl1ght/ppu/lib/librt.a(isatty.o)
                0x0000000000012c00                .__librt_isatty_r
 .text          0x0000000000012c2c        0x0 /usr/local/ps3dev/libpsl1ght/ppu/lib/librt.a(gettod.o)
 *fill*         0x0000000000012c2c        0x4 60000000
 .text.__librt_gettod_r
                0x0000000000012c30       0xb8 /usr/local/ps3dev/libpsl1ght/ppu/lib/librt.a(gettod.o)
                0x0000000000012c30                .__librt_gettod_r
 .text          0x0000000000012ce8        0x0 /usr/local/ps3dev/libpsl1ght/ppu/lib/librt.a(settod.o)
 .text.__librt_settod_r
                0x0000000000012ce8       0x58 /usr/local/ps3dev/libpsl1ght/ppu/lib/librt.a(settod.o)
                0x0000000000012ce8                .__librt_settod_r
 .text          0x0000000000012d40        0x0 /usr/local/ps3dev/libpsl1ght/ppu/lib/liblv2.a(sprx.o)
 .text          0x0000000000012d40        0x0 /usr/local/ps3dev/ppu/lib/gcc/powerpc64-ps3-elf/4.7.0/../../../../powerpc64-ps3-elf/lib/libsysbase.a(syscalls.o)
 .text          0x0000000000012d40        0x0 /usr/local/ps3dev/ppu/lib/gcc/powerpc64-ps3-elf/4.7.0/../../../../powerpc64-ps3-elf/lib/libc.a(lib_a-errno.o)
 .text.__errno  0x0000000000012d40       0x30 /usr/local/ps3dev/ppu/lib/gcc/powerpc64-ps3-elf/4.7.0/../../../../powerpc64-ps3-elf/lib/libc.a(lib_a-errno.o)
                0x0000000000012d40                .__errno
 .text          0x0000000000012d70        0x0 /usr/local/ps3dev/ppu/lib/gcc/powerpc64-ps3-elf/4.7.0/../../../../powerpc64-ps3-elf/lib/libc.a(lib_a-exit.o)
 .text.exit     0x0000000000012d70       0x68 /usr/local/ps3dev/ppu/lib/gcc/powerpc64-ps3-elf/4.7.0/../../../../powerpc64-ps3-elf/lib/libc.a(lib_a-exit.o)
                0x0000000000012d70                .exit
 .text          0x0000000000012dd8        0x0 /usr/local/ps3dev/ppu/lib/gcc/powerpc64-ps3-elf/4.7.0/../../../../powerpc64-ps3-elf/lib/libc.a(lib_a-getreent.o)
 .text.__getreent
                0x0000000000012dd8      0x1f0 /usr/local/ps3dev/ppu/lib/gcc/powerpc64-ps3-elf/4.7.0/../../../../powerpc64-ps3-elf/lib/libc.a(lib_a-getreent.o)
                0x0000000000012dd8                .__getreent
 .text          0x0000000000012fc8        0x0 /usr/local/ps3dev/ppu/lib/gcc/powerpc64-ps3-elf/4.7.0/../../../../powerpc64-ps3-elf/lib/libc.a(lib_a-impure.o)
 .text          0x0000000000012fc8        0x0 /usr/local/ps3dev/ppu/lib/gcc/powerpc64-ps3-elf/4.7.0/../../../../powerpc64-ps3-elf/lib/libc.a(lib_a-malloc.o)
 .text.malloc   0x0000000000012fc8       0x48 /usr/local/ps3dev/ppu/lib/gcc/powerpc64-ps3-elf/4.7.0/../../../../powerpc64-ps3-elf/lib/libc.a(lib_a-malloc.o)
                0x0000000000012fc8                .malloc
 .text.free     0x0000000000013010       0x48 /usr/local/ps3dev/ppu/lib/gcc/powerpc64-ps3-elf/4.7.0/../../../../powerpc64-ps3-elf/lib/libc.a(lib_a-malloc.o)
                0x0000000000013010                .free
 .text          0x0000000000013058        0x0 /usr/local/ps3dev/ppu/lib/gcc/powerpc64-ps3-elf/4.7.0/../../../../powerpc64-ps3-elf/lib/libc.a(lib_a-mallocr.o)
 .text._malloc_r
                0x0000000000013058      0xa10 /usr/local/ps3dev/ppu/lib/gcc/powerpc64-ps3-elf/4.7.0/../../../../powerpc64-ps3-elf/lib/libc.a(lib_a-mallocr.o)
                0x0000000000013058                ._malloc_r
 .text          0x0000000000013a68        0x0 /usr/local/ps3dev/ppu/lib/gcc/powerpc64-ps3-elf/4.7.0/../../../../powerpc64-ps3-elf/lib/libc.a(lib_a-memset.o)
 .text.memset   0x0000000000013a68      0x148 /usr/local/ps3dev/ppu/lib/gcc/powerpc64-ps3-elf/4.7.0/../../../../powerpc64-ps3-elf/lib/libc.a(lib_a-memset.o)
                0x0000000000013a68                .memset
 .text          0x0000000000013bb0        0x0 /usr/local/ps3dev/ppu/lib/gcc/powerpc64-ps3-elf/4.7.0/../../../../powerpc64-ps3-elf/lib/libc.a(lib_a-mlock.o)
 .text.__malloc_lock
                0x0000000000013bb0       0x34 /usr/local/ps3dev/ppu/lib/gcc/powerpc64-ps3-elf/4.7.0/../../../../powerpc64-ps3-elf/lib/libc.a(lib_a-mlock.o)
                0x0000000000013bb0                .__malloc_lock
 *fill*         0x0000000000013be4        0x4 60000000
 .text.__malloc_unlock
                0x0000000000013be8       0x34 /usr/local/ps3dev/ppu/lib/gcc/powerpc64-ps3-elf/4.7.0/../../../../powerpc64-ps3-elf/lib/libc.a(lib_a-mlock.o)
                0x0000000000013be8                .__malloc_unlock
 .text          0x0000000000013c1c        0x0 /usr/local/ps3dev/ppu/lib/gcc/powerpc64-ps3-elf/4.7.0/../../../../powerpc64-ps3-elf/lib/libc.a(lib_a-sscanf.o)
 *fill*         0x0000000000013c1c        0x4 60000000
 .text.sscanf   0x0000000000013c20       0xb0 /usr/local/ps3dev/ppu/lib/gcc/powerpc64-ps3-elf/4.7.0/../../../../powerpc64-ps3-elf/lib/libc.a(lib_a-sscanf.o)
                0x0000000000013c20                .sscanf
 .text._sscanf_r
                0x0000000000013cd0       0xb0 /usr/local/ps3dev/ppu/lib/gcc/powerpc64-ps3-elf/4.7.0/../../../../powerpc64-ps3-elf/lib/libc.a(lib_a-sscanf.o)
                0x0000000000013cd0                ._sscanf_r
 .text          0x0000000000013d80        0x0 /usr/local/ps3dev/ppu/lib/gcc/powerpc64-ps3-elf/4.7.0/../../../../powerpc64-ps3-elf/lib/libc.a(lib_a-stdio.o)
 .text.__sread  0x0000000000013d80       0x80 /usr/local/ps3dev/ppu/lib/gcc/powerpc64-ps3-elf/4.7.0/../../../../powerpc64-ps3-elf/lib/libc.a(lib_a-stdio.o)
                0x0000000000013d80                .__sread
 .text.__seofread
                0x0000000000013e00       0x14 /usr/local/ps3dev/ppu/lib/gcc/powerpc64-ps3-elf/4.7.0/../../../../powerpc64-ps3-elf/lib/libc.a(lib_a-stdio.o)
                0x0000000000013e00                .__seofread
 *fill*         0x0000000000013e14        0x4 60000000
 .text.__swrite
                0x0000000000013e18       0xb8 /usr/local/ps3dev/ppu/lib/gcc/powerpc64-ps3-elf/4.7.0/../../../../powerpc64-ps3-elf/lib/libc.a(lib_a-stdio.o)
                0x0000000000013e18                .__swrite
 .text.__sseek  0x0000000000013ed0       0x7c /usr/local/ps3dev/ppu/lib/gcc/powerpc64-ps3-elf/4.7.0/../../../../powerpc64-ps3-elf/lib/libc.a(lib_a-stdio.o)
                0x0000000000013ed0                .__sseek
 *fill*         0x0000000000013f4c        0x4 60000000
 .text.__sclose
                0x0000000000013f50       0x38 /usr/local/ps3dev/ppu/lib/gcc/powerpc64-ps3-elf/4.7.0/../../../../powerpc64-ps3-elf/lib/libc.a(lib_a-stdio.o)
                0x0000000000013f50                .__sclose
 .text          0x0000000000013f88        0x0 /usr/local/ps3dev/ppu/lib/gcc/powerpc64-ps3-elf/4.7.0/../../../../powerpc64-ps3-elf/lib/libc.a(lib_a-strlen.o)
 .text.strlen   0x0000000000013f88       0xd8 /usr/local/ps3dev/ppu/lib/gcc/powerpc64-ps3-elf/4.7.0/../../../../powerpc64-ps3-elf/lib/libc.a(lib_a-strlen.o)
                0x0000000000013f88                .strlen
 .text          0x0000000000014060        0x0 /usr/local/ps3dev/ppu/lib/gcc/powerpc64-ps3-elf/4.7.0/../../../../powerpc64-ps3-elf/lib/libc.a(lib_a-strncpy.o)
 .text.strncpy  0x0000000000014060      0x11c /usr/local/ps3dev/ppu/lib/gcc/powerpc64-ps3-elf/4.7.0/../../../../powerpc64-ps3-elf/lib/libc.a(lib_a-strncpy.o)
                0x0000000000014060                .strncpy
 .text          0x000000000001417c        0x0 /usr/local/ps3dev/ppu/lib/gcc/powerpc64-ps3-elf/4.7.0/../../../../powerpc64-ps3-elf/lib/libc.a(lib_a-svfscanf.o)
 *fill*         0x000000000001417c        0x4 60000000
 .text.__ssvfscanf_r
                0x0000000000014180     0x1800 /usr/local/ps3dev/ppu/lib/gcc/powerpc64-ps3-elf/4.7.0/../../../../powerpc64-ps3-elf/lib/libc.a(lib_a-svfscanf.o)
                0x0000000000014180                .__ssvfscanf_r
 .text          0x0000000000015980        0x0 /usr/local/ps3dev/ppu/lib/gcc/powerpc64-ps3-elf/4.7.0/../../../../powerpc64-ps3-elf/lib/libc.a(lib_a-__call_atexit.o)
 .text.__call_exitprocs
                0x0000000000015980      0x24c /usr/local/ps3dev/ppu/lib/gcc/powerpc64-ps3-elf/4.7.0/../../../../powerpc64-ps3-elf/lib/libc.a(lib_a-__call_atexit.o)
                0x0000000000015980                .__call_exitprocs
 .text          0x0000000000015bcc        0x0 /usr/local/ps3dev/ppu/lib/gcc/powerpc64-ps3-elf/4.7.0/../../../../powerpc64-ps3-elf/lib/libc.a(lib_a-ctype_.o)
 .text          0x0000000000015bcc        0x0 /usr/local/ps3dev/ppu/lib/gcc/powerpc64-ps3-elf/4.7.0/../../../../powerpc64-ps3-elf/lib/libc.a(lib_a-freer.o)
 *fill*         0x0000000000015bcc        0x4 60000000
 .text._malloc_trim_r
                0x0000000000015bd0      0x15c /usr/local/ps3dev/ppu/lib/gcc/powerpc64-ps3-elf/4.7.0/../../../../powerpc64-ps3-elf/lib/libc.a(lib_a-freer.o)
                0x0000000000015bd0                ._malloc_trim_r
 *fill*         0x0000000000015d2c        0x4 60000000
 .text._free_r  0x0000000000015d30      0x348 /usr/local/ps3dev/ppu/lib/gcc/powerpc64-ps3-elf/4.7.0/../../../../powerpc64-ps3-elf/lib/libc.a(lib_a-freer.o)
                0x0000000000015d30                ._free_r
 .text          0x0000000000016078        0x0 /usr/local/ps3dev/ppu/lib/gcc/powerpc64-ps3-elf/4.7.0/../../../../powerpc64-ps3-elf/lib/libc.a(lib_a-iswspace.o)
 .text.iswspace
                0x0000000000016078       0x3c /usr/local/ps3dev/ppu/lib/gcc/powerpc64-ps3-elf/4.7.0/../../../../powerpc64-ps3-elf/lib/libc.a(lib_a-iswspace.o)
                0x0000000000016078                .iswspace
 .text          0x00000000000160b4        0x0 /usr/local/ps3dev/ppu/lib/gcc/powerpc64-ps3-elf/4.7.0/../../../../powerpc64-ps3-elf/lib/libc.a(lib_a-locale.o)
 *fill*         0x00000000000160b4        0x4 60000000
 .text._setlocale_r
                0x00000000000160b8       0xb4 /usr/local/ps3dev/ppu/lib/gcc/powerpc64-ps3-elf/4.7.0/../../../../powerpc64-ps3-elf/lib/libc.a(lib_a-locale.o)
                0x00000000000160b8                ._setlocale_r
 *fill*         0x000000000001616c        0x4 60000000
 .text.__locale_charset
                0x0000000000016170       0x14 /usr/local/ps3dev/ppu/lib/gcc/powerpc64-ps3-elf/4.7.0/../../../../powerpc64-ps3-elf/lib/libc.a(lib_a-locale.o)
                0x0000000000016170                .__locale_charset
 *fill*         0x0000000000016184        0x4 60000000
 .text.__locale_mb_cur_max
                0x0000000000016188       0x1c /usr/local/ps3dev/ppu/lib/gcc/powerpc64-ps3-elf/4.7.0/../../../../powerpc64-ps3-elf/lib/libc.a(lib_a-locale.o)
                0x0000000000016188                .__locale_mb_cur_max
 *fill*         0x00000000000161a4        0x4 60000000
 .text.__locale_msgcharset
                0x00000000000161a8       0x14 /usr/local/ps3dev/ppu/lib/gcc/powerpc64-ps3-elf/4.7.0/../../../../powerpc64-ps3-elf/lib/libc.a(lib_a-locale.o)
                0x00000000000161a8                .__locale_msgcharset
 *fill*         0x00000000000161bc        0x4 60000000
 .text.__locale_cjk_lang
                0x00000000000161c0       0x14 /usr/local/ps3dev/ppu/lib/gcc/powerpc64-ps3-elf/4.7.0/../../../../powerpc64-ps3-elf/lib/libc.a(lib_a-locale.o)
                0x00000000000161c0                .__locale_cjk_lang
 *fill*         0x00000000000161d4        0x4 60000000
 .text._localeconv_r
                0x00000000000161d8       0x14 /usr/local/ps3dev/ppu/lib/gcc/powerpc64-ps3-elf/4.7.0/../../../../powerpc64-ps3-elf/lib/libc.a(lib_a-locale.o)
                0x00000000000161d8                ._localeconv_r
 *fill*         0x00000000000161ec        0x4 60000000
 .text.setlocale
                0x00000000000161f0       0x50 /usr/local/ps3dev/ppu/lib/gcc/powerpc64-ps3-elf/4.7.0/../../../../powerpc64-ps3-elf/lib/libc.a(lib_a-locale.o)
                0x00000000000161f0                .setlocale
 .text.localeconv
                0x0000000000016240       0x34 /usr/local/ps3dev/ppu/lib/gcc/powerpc64-ps3-elf/4.7.0/../../../../powerpc64-ps3-elf/lib/libc.a(lib_a-locale.o)
                0x0000000000016240                .localeconv
 .text          0x0000000000016274        0x0 /usr/local/ps3dev/ppu/lib/gcc/powerpc64-ps3-elf/4.7.0/../../../../powerpc64-ps3-elf/lib/libc.a(lib_a-lock_recursive.o)
 *fill*         0x0000000000016274        0x4 60000000
 .text.__libc_lock_init_recursive
                0x0000000000016278       0x34 /usr/local/ps3dev/ppu/lib/gcc/powerpc64-ps3-elf/4.7.0/../../../../powerpc64-ps3-elf/lib/libc.a(lib_a-lock_recursive.o)
                0x0000000000016278                .__libc_lock_init_recursive
 *fill*         0x00000000000162ac        0x4 60000000
 .text.__libc_lock_close_recursive
                0x00000000000162b0       0x30 /usr/local/ps3dev/ppu/lib/gcc/powerpc64-ps3-elf/4.7.0/../../../../powerpc64-ps3-elf/lib/libc.a(lib_a-lock_recursive.o)
                0x00000000000162b0                .__libc_lock_close_recursive
 .text.__libc_lock_acquire_recursive
                0x00000000000162e0       0x58 /usr/local/ps3dev/ppu/lib/gcc/powerpc64-ps3-elf/4.7.0/../../../../powerpc64-ps3-elf/lib/libc.a(lib_a-lock_recursive.o)
                0x00000000000162e0                .__libc_lock_acquire_recursive
 .text.__libc_lock_try_acquire_recursive
                0x0000000000016338       0x54 /usr/local/ps3dev/ppu/lib/gcc/powerpc64-ps3-elf/4.7.0/../../../../powerpc64-ps3-elf/lib/libc.a(lib_a-lock_recursive.o)
                0x0000000000016338                .__libc_lock_try_acquire_recursive
 *fill*         0x000000000001638c        0x4 60000000
 .text.__libc_lock_release_recursive
                0x0000000000016390       0x54 /usr/local/ps3dev/ppu/lib/gcc/powerpc64-ps3-elf/4.7.0/../../../../powerpc64-ps3-elf/lib/libc.a(lib_a-lock_recursive.o)
                0x0000000000016390                .__libc_lock_release_recursive
 .text          0x00000000000163e4        0x0 /usr/local/ps3dev/ppu/lib/gcc/powerpc64-ps3-elf/4.7.0/../../../../powerpc64-ps3-elf/lib/libc.a(lib_a-mbrtowc.o)
 *fill*         0x00000000000163e4        0x4 60000000
 .text._mbrtowc_r
                0x00000000000163e8      0x104 /usr/local/ps3dev/ppu/lib/gcc/powerpc64-ps3-elf/4.7.0/../../../../powerpc64-ps3-elf/lib/libc.a(lib_a-mbrtowc.o)
                0x00000000000163e8                ._mbrtowc_r
 *fill*         0x00000000000164ec        0x4 60000000
 .text.mbrtowc  0x00000000000164f0      0x170 /usr/local/ps3dev/ppu/lib/gcc/powerpc64-ps3-elf/4.7.0/../../../../powerpc64-ps3-elf/lib/libc.a(lib_a-mbrtowc.o)
                0x00000000000164f0                .mbrtowc
 .text          0x0000000000016660        0x0 /usr/local/ps3dev/ppu/lib/gcc/powerpc64-ps3-elf/4.7.0/../../../../powerpc64-ps3-elf/lib/libc.a(lib_a-mbtowc_r.o)
 .text.__ascii_mbtowc
                0x0000000000016660       0x5c /usr/local/ps3dev/ppu/lib/gcc/powerpc64-ps3-elf/4.7.0/../../../../powerpc64-ps3-elf/lib/libc.a(lib_a-mbtowc_r.o)
                0x0000000000016660                .__ascii_mbtowc
 *fill*         0x00000000000166bc        0x4 60000000
 .text._mbtowc_r
                0x00000000000166c0       0x98 /usr/local/ps3dev/ppu/lib/gcc/powerpc64-ps3-elf/4.7.0/../../../../powerpc64-ps3-elf/lib/libc.a(lib_a-mbtowc_r.o)
                0x00000000000166c0                ._mbtowc_r
 .text          0x0000000000016758        0x0 /usr/local/ps3dev/ppu/lib/gcc/powerpc64-ps3-elf/4.7.0/../../../../powerpc64-ps3-elf/lib/libc.a(lib_a-sccl.o)
 .text.__sccl   0x0000000000016758      0x120 /usr/local/ps3dev/ppu/lib/gcc/powerpc64-ps3-elf/4.7.0/../../../../powerpc64-ps3-elf/lib/libc.a(lib_a-sccl.o)
                0x0000000000016758                .__sccl
 .text          0x0000000000016878        0x0 /usr/local/ps3dev/ppu/lib/gcc/powerpc64-ps3-elf/4.7.0/../../../../powerpc64-ps3-elf/lib/libc.a(lib_a-sf_nan.o)
 .text.nanf     0x0000000000016878       0x18 /usr/local/ps3dev/ppu/lib/gcc/powerpc64-ps3-elf/4.7.0/../../../../powerpc64-ps3-elf/lib/libc.a(lib_a-sf_nan.o)
                0x0000000000016878                .nanf
 .text          0x0000000000016890        0x0 /usr/local/ps3dev/ppu/lib/gcc/powerpc64-ps3-elf/4.7.0/../../../../powerpc64-ps3-elf/lib/libc.a(lib_a-s_fpclassify.o)
 .text.__fpclassifyd
                0x0000000000016890       0xc0 /usr/local/ps3dev/ppu/lib/gcc/powerpc64-ps3-elf/4.7.0/../../../../powerpc64-ps3-elf/lib/libc.a(lib_a-s_fpclassify.o)
                0x0000000000016890                .__fpclassifyd
 .text          0x0000000000016950        0x0 /usr/local/ps3dev/ppu/lib/gcc/powerpc64-ps3-elf/4.7.0/../../../../powerpc64-ps3-elf/lib/libc.a(lib_a-sprintf.o)
 .text._sprintf_r
                0x0000000000016950       0x8c /usr/local/ps3dev/ppu/lib/gcc/powerpc64-ps3-elf/4.7.0/../../../../powerpc64-ps3-elf/lib/libc.a(lib_a-sprintf.o)
                0x0000000000016950                ._sprintf_r
 *fill*         0x00000000000169dc        0x4 60000000
 .text.sprintf  0x00000000000169e0       0xa4 /usr/local/ps3dev/ppu/lib/gcc/powerpc64-ps3-elf/4.7.0/../../../../powerpc64-ps3-elf/lib/libc.a(lib_a-sprintf.o)
                0x00000000000169e0                .sprintf
 .text          0x0000000000016a84        0x0 /usr/local/ps3dev/ppu/lib/gcc/powerpc64-ps3-elf/4.7.0/../../../../powerpc64-ps3-elf/lib/libc.a(lib_a-strcmp.o)
 *fill*         0x0000000000016a84        0x4 60000000
 .text.strcmp   0x0000000000016a88       0xe4 /usr/local/ps3dev/ppu/lib/gcc/powerpc64-ps3-elf/4.7.0/../../../../powerpc64-ps3-elf/lib/libc.a(lib_a-strcmp.o)
                0x0000000000016a88                .strcmp
 .text          0x0000000000016b6c        0x0 /usr/local/ps3dev/ppu/lib/gcc/powerpc64-ps3-elf/4.7.0/../../../../powerpc64-ps3-elf/lib/libc.a(lib_a-strtod.o)
 *fill*         0x0000000000016b6c        0x4 60000000
 .text._strtod_r
                0x0000000000016b70     0x15fc /usr/local/ps3dev/ppu/lib/gcc/powerpc64-ps3-elf/4.7.0/../../../../powerpc64-ps3-elf/lib/libc.a(lib_a-strtod.o)
                0x0000000000016b70                ._strtod_r
 *fill*         0x000000000001816c        0x4 60000000
 .text.strtod   0x0000000000018170       0x50 /usr/local/ps3dev/ppu/lib/gcc/powerpc64-ps3-elf/4.7.0/../../../../powerpc64-ps3-elf/lib/libc.a(lib_a-strtod.o)
                0x0000000000018170                .strtod
 .text.strtof   0x00000000000181c0       0x98 /usr/local/ps3dev/ppu/lib/gcc/powerpc64-ps3-elf/4.7.0/../../../../powerpc64-ps3-elf/lib/libc.a(lib_a-strtod.o)
                0x00000000000181c0                .strtof
 .text          0x0000000000018258        0x0 /usr/local/ps3dev/ppu/lib/gcc/powerpc64-ps3-elf/4.7.0/../../../../powerpc64-ps3-elf/lib/libc.a(lib_a-strtoll_r.o)
 .text._strtoll_r
                0x0000000000018258      0x264 /usr/local/ps3dev/ppu/lib/gcc/powerpc64-ps3-elf/4.7.0/../../../../powerpc64-ps3-elf/lib/libc.a(lib_a-strtoll_r.o)
                0x0000000000018258                ._strtoll_r
 .text          0x00000000000184bc        0x0 /usr/local/ps3dev/ppu/lib/gcc/powerpc64-ps3-elf/4.7.0/../../../../powerpc64-ps3-elf/lib/libc.a(lib_a-strtol.o)
 *fill*         0x00000000000184bc        0x4 60000000
 .text._strtol_r
                0x00000000000184c0      0x264 /usr/local/ps3dev/ppu/lib/gcc/powerpc64-ps3-elf/4.7.0/../../../../powerpc64-ps3-elf/lib/libc.a(lib_a-strtol.o)
                0x00000000000184c0                ._strtol_r
 *fill*         0x0000000000018724        0x4 60000000
 .text.strtol   0x0000000000018728       0x60 /usr/local/ps3dev/ppu/lib/gcc/powerpc64-ps3-elf/4.7.0/../../../../powerpc64-ps3-elf/lib/libc.a(lib_a-strtol.o)
                0x0000000000018728                .strtol
 .text          0x0000000000018788        0x0 /usr/local/ps3dev/ppu/lib/gcc/powerpc64-ps3-elf/4.7.0/../../../../powerpc64-ps3-elf/lib/libc.a(lib_a-strtoull_r.o)
 .text._strtoull_r
                0x0000000000018788      0x260 /usr/local/ps3dev/ppu/lib/gcc/powerpc64-ps3-elf/4.7.0/../../../../powerpc64-ps3-elf/lib/libc.a(lib_a-strtoull_r.o)
                0x0000000000018788                ._strtoull_r
 .text          0x00000000000189e8        0x0 /usr/local/ps3dev/ppu/lib/gcc/powerpc64-ps3-elf/4.7.0/../../../../powerpc64-ps3-elf/lib/libc.a(lib_a-strtoul.o)
 .text._strtoul_r
                0x00000000000189e8      0x260 /usr/local/ps3dev/ppu/lib/gcc/powerpc64-ps3-elf/4.7.0/../../../../powerpc64-ps3-elf/lib/libc.a(lib_a-strtoul.o)
                0x00000000000189e8                ._strtoul_r
 .text.strtoul  0x0000000000018c48       0x60 /usr/local/ps3dev/ppu/lib/gcc/powerpc64-ps3-elf/4.7.0/../../../../powerpc64-ps3-elf/lib/libc.a(lib_a-strtoul.o)
                0x0000000000018c48                .strtoul
 .text          0x0000000000018ca8        0x0 /usr/local/ps3dev/ppu/lib/gcc/powerpc64-ps3-elf/4.7.0/../../../../powerpc64-ps3-elf/lib/libc.a(lib_a-svfiscanf.o)
 .text._sungetc_r
                0x0000000000018ca8      0x140 /usr/local/ps3dev/ppu/lib/gcc/powerpc64-ps3-elf/4.7.0/../../../../powerpc64-ps3-elf/lib/libc.a(lib_a-svfiscanf.o)
                0x0000000000018ca8                ._sungetc_r
 .text.__ssrefill_r
                0x0000000000018de8       0xa0 /usr/local/ps3dev/ppu/lib/gcc/powerpc64-ps3-elf/4.7.0/../../../../powerpc64-ps3-elf/lib/libc.a(lib_a-svfiscanf.o)
                0x0000000000018de8                .__ssrefill_r
 .text._sfread_r
                0x0000000000018e88      0x190 /usr/local/ps3dev/ppu/lib/gcc/powerpc64-ps3-elf/4.7.0/../../../../powerpc64-ps3-elf/lib/libc.a(lib_a-svfiscanf.o)
                0x0000000000018e88                ._sfread_r
 .text.__ssvfiscanf_r
                0x0000000000019018     0x115c /usr/local/ps3dev/ppu/lib/gcc/powerpc64-ps3-elf/4.7.0/../../../../powerpc64-ps3-elf/lib/libc.a(lib_a-svfiscanf.o)
                0x0000000000019018                .__ssvfiscanf_r
 .text          0x000000000001a174        0x0 /usr/local/ps3dev/ppu/lib/gcc/powerpc64-ps3-elf/4.7.0/../../../../powerpc64-ps3-elf/lib/libc.a(lib_a-svfprintf.o)
 *fill*         0x000000000001a174        0x4 60000000
 .text._svfprintf_r
                0x000000000001a178     0x1fd4 /usr/local/ps3dev/ppu/lib/gcc/powerpc64-ps3-elf/4.7.0/../../../../powerpc64-ps3-elf/lib/libc.a(lib_a-svfprintf.o)
                0x000000000001a178                ._svfprintf_r
 .text          0x000000000001c14c        0x0 /usr/local/ps3dev/ppu/lib/gcc/powerpc64-ps3-elf/4.7.0/../../../../powerpc64-ps3-elf/lib/libc.a(lib_a-ungetc.o)
 *fill*         0x000000000001c14c        0x4 60000000
 .text.__submore
                0x000000000001c150      0x124 /usr/local/ps3dev/ppu/lib/gcc/powerpc64-ps3-elf/4.7.0/../../../../powerpc64-ps3-elf/lib/libc.a(lib_a-ungetc.o)
                0x000000000001c150                .__submore
 *fill*         0x000000000001c274        0x4 60000000
 .text._ungetc_r
                0x000000000001c278      0x310 /usr/local/ps3dev/ppu/lib/gcc/powerpc64-ps3-elf/4.7.0/../../../../powerpc64-ps3-elf/lib/libc.a(lib_a-ungetc.o)
                0x000000000001c278                ._ungetc_r
 .text.ungetc   0x000000000001c588       0x50 /usr/local/ps3dev/ppu/lib/gcc/powerpc64-ps3-elf/4.7.0/../../../../powerpc64-ps3-elf/lib/libc.a(lib_a-ungetc.o)
                0x000000000001c588                .ungetc
 .text          0x000000000001c5d8        0x0 /usr/local/ps3dev/ppu/lib/gcc/powerpc64-ps3-elf/4.7.0/../../../../powerpc64-ps3-elf/lib/libc.a(lib_a-__atexit.o)
 .text.__register_exitproc
                0x000000000001c5d8      0x1b8 /usr/local/ps3dev/ppu/lib/gcc/powerpc64-ps3-elf/4.7.0/../../../../powerpc64-ps3-elf/lib/libc.a(lib_a-__atexit.o)
                0x000000000001c5d8                .__register_exitproc
 .text          0x000000000001c790        0x0 /usr/local/ps3dev/ppu/lib/gcc/powerpc64-ps3-elf/4.7.0/../../../../powerpc64-ps3-elf/lib/libc.a(lib_a-dtoa.o)
 .text.quorem   0x000000000001c790      0x258 /usr/local/ps3dev/ppu/lib/gcc/powerpc64-ps3-elf/4.7.0/../../../../powerpc64-ps3-elf/lib/libc.a(lib_a-dtoa.o)
 .text._dtoa_r  0x000000000001c9e8     0x1350 /usr/local/ps3dev/ppu/lib/gcc/powerpc64-ps3-elf/4.7.0/../../../../powerpc64-ps3-elf/lib/libc.a(lib_a-dtoa.o)
                0x000000000001c9e8                ._dtoa_r
 .text          0x000000000001dd38        0x0 /usr/local/ps3dev/ppu/lib/gcc/powerpc64-ps3-elf/4.7.0/../../../../powerpc64-ps3-elf/lib/libc.a(lib_a-fflush.o)
 .text.__sflush_r
                0x000000000001dd38      0x360 /usr/local/ps3dev/ppu/lib/gcc/powerpc64-ps3-elf/4.7.0/../../../../powerpc64-ps3-elf/lib/libc.a(lib_a-fflush.o)
                0x000000000001dd38                .__sflush_r
 .text._fflush_r
                0x000000000001e098      0x120 /usr/local/ps3dev/ppu/lib/gcc/powerpc64-ps3-elf/4.7.0/../../../../powerpc64-ps3-elf/lib/libc.a(lib_a-fflush.o)
                0x000000000001e098                ._fflush_r
 .text.fflush   0x000000000001e1b8       0x74 /usr/local/ps3dev/ppu/lib/gcc/powerpc64-ps3-elf/4.7.0/../../../../powerpc64-ps3-elf/lib/libc.a(lib_a-fflush.o)
                0x000000000001e1b8                .fflush
 .text          0x000000000001e22c        0x0 /usr/local/ps3dev/ppu/lib/gcc/powerpc64-ps3-elf/4.7.0/../../../../powerpc64-ps3-elf/lib/libc.a(lib_a-findfp.o)
 *fill*         0x000000000001e22c        0x4 60000000
 .text._cleanup_r
                0x000000000001e230       0x34 /usr/local/ps3dev/ppu/lib/gcc/powerpc64-ps3-elf/4.7.0/../../../../powerpc64-ps3-elf/lib/libc.a(lib_a-findfp.o)
                0x000000000001e230                ._cleanup_r
 *fill*         0x000000000001e264        0x4 60000000
 .text.__fp_unlock
                0x000000000001e268       0x58 /usr/local/ps3dev/ppu/lib/gcc/powerpc64-ps3-elf/4.7.0/../../../../powerpc64-ps3-elf/lib/libc.a(lib_a-findfp.o)
 .text.__fp_lock
                0x000000000001e2c0       0x58 /usr/local/ps3dev/ppu/lib/gcc/powerpc64-ps3-elf/4.7.0/../../../../powerpc64-ps3-elf/lib/libc.a(lib_a-findfp.o)
 .text.std.isra.0
                0x000000000001e318       0xa0 /usr/local/ps3dev/ppu/lib/gcc/powerpc64-ps3-elf/4.7.0/../../../../powerpc64-ps3-elf/lib/libc.a(lib_a-findfp.o)
 .text.__sfmoreglue
                0x000000000001e3b8       0x94 /usr/local/ps3dev/ppu/lib/gcc/powerpc64-ps3-elf/4.7.0/../../../../powerpc64-ps3-elf/lib/libc.a(lib_a-findfp.o)
                0x000000000001e3b8                .__sfmoreglue
 *fill*         0x000000000001e44c        0x4 60000000
 .text._cleanup
                0x000000000001e450       0x18 /usr/local/ps3dev/ppu/lib/gcc/powerpc64-ps3-elf/4.7.0/../../../../powerpc64-ps3-elf/lib/libc.a(lib_a-findfp.o)
                0x000000000001e450                ._cleanup
 .text.__sfp_lock_acquire
                0x000000000001e468       0x34 /usr/local/ps3dev/ppu/lib/gcc/powerpc64-ps3-elf/4.7.0/../../../../powerpc64-ps3-elf/lib/libc.a(lib_a-findfp.o)
                0x000000000001e468                .__sfp_lock_acquire
 *fill*         0x000000000001e49c        0x4 60000000
 .text.__sfp_lock_release
                0x000000000001e4a0       0x34 /usr/local/ps3dev/ppu/lib/gcc/powerpc64-ps3-elf/4.7.0/../../../../powerpc64-ps3-elf/lib/libc.a(lib_a-findfp.o)
                0x000000000001e4a0                .__sfp_lock_release
 *fill*         0x000000000001e4d4        0x4 60000000
 .text.__sinit_lock_acquire
                0x000000000001e4d8       0x34 /usr/local/ps3dev/ppu/lib/gcc/powerpc64-ps3-elf/4.7.0/../../../../powerpc64-ps3-elf/lib/libc.a(lib_a-findfp.o)
                0x000000000001e4d8                .__sinit_lock_acquire
 *fill*         0x000000000001e50c        0x4 60000000
 .text.__sinit_lock_release
                0x000000000001e510       0x34 /usr/local/ps3dev/ppu/lib/gcc/powerpc64-ps3-elf/4.7.0/../../../../powerpc64-ps3-elf/lib/libc.a(lib_a-findfp.o)
                0x000000000001e510                .__sinit_lock_release
 *fill*         0x000000000001e544        0x4 60000000
 .text.__sinit  0x000000000001e548       0x9c /usr/local/ps3dev/ppu/lib/gcc/powerpc64-ps3-elf/4.7.0/../../../../powerpc64-ps3-elf/lib/libc.a(lib_a-findfp.o)
                0x000000000001e548                .__sinit
 *fill*         0x000000000001e5e4        0x4 60000000
 .text.__sfp    0x000000000001e5e8      0x16c /usr/local/ps3dev/ppu/lib/gcc/powerpc64-ps3-elf/4.7.0/../../../../powerpc64-ps3-elf/lib/libc.a(lib_a-findfp.o)
                0x000000000001e5e8                .__sfp
 *fill*         0x000000000001e754        0x4 60000000
 .text.__fp_lock_all
                0x000000000001e758       0x40 /usr/local/ps3dev/ppu/lib/gcc/powerpc64-ps3-elf/4.7.0/../../../../powerpc64-ps3-elf/lib/libc.a(lib_a-findfp.o)
                0x000000000001e758                .__fp_lock_all
 .text.__fp_unlock_all
                0x000000000001e798       0x3c /usr/local/ps3dev/ppu/lib/gcc/powerpc64-ps3-elf/4.7.0/../../../../powerpc64-ps3-elf/lib/libc.a(lib_a-findfp.o)
                0x000000000001e798                .__fp_unlock_all
 .text          0x000000000001e7d4        0x0 /usr/local/ps3dev/ppu/lib/gcc/powerpc64-ps3-elf/4.7.0/../../../../powerpc64-ps3-elf/lib/libc.a(lib_a-fwalk.o)
 *fill*         0x000000000001e7d4        0x4 60000000
 .text._fwalk   0x000000000001e7d8      0x120 /usr/local/ps3dev/ppu/lib/gcc/powerpc64-ps3-elf/4.7.0/../../../../powerpc64-ps3-elf/lib/libc.a(lib_a-fwalk.o)
                0x000000000001e7d8                ._fwalk
 .text._fwalk_reent
                0x000000000001e8f8      0x130 /usr/local/ps3dev/ppu/lib/gcc/powerpc64-ps3-elf/4.7.0/../../../../powerpc64-ps3-elf/lib/libc.a(lib_a-fwalk.o)
                0x000000000001e8f8                ._fwalk_reent
 .text          0x000000000001ea28        0x0 /usr/local/ps3dev/ppu/lib/gcc/powerpc64-ps3-elf/4.7.0/../../../../powerpc64-ps3-elf/lib/libc.a(lib_a-gdtoa-gethex.o)
 .text.rshift   0x000000000001ea28      0x158 /usr/local/ps3dev/ppu/lib/gcc/powerpc64-ps3-elf/4.7.0/../../../../powerpc64-ps3-elf/lib/libc.a(lib_a-gdtoa-gethex.o)
 .text.__hexdig_init
                0x000000000001eb80       0x88 /usr/local/ps3dev/ppu/lib/gcc/powerpc64-ps3-elf/4.7.0/../../../../powerpc64-ps3-elf/lib/libc.a(lib_a-gdtoa-gethex.o)
                0x000000000001eb80                .__hexdig_init
 .text.__gethex
                0x000000000001ec08      0x954 /usr/local/ps3dev/ppu/lib/gcc/powerpc64-ps3-elf/4.7.0/../../../../powerpc64-ps3-elf/lib/libc.a(lib_a-gdtoa-gethex.o)
                0x000000000001ec08                .__gethex
 .text          0x000000000001f55c        0x0 /usr/local/ps3dev/ppu/lib/gcc/powerpc64-ps3-elf/4.7.0/../../../../powerpc64-ps3-elf/lib/libc.a(lib_a-gdtoa-hexnan.o)
 *fill*         0x000000000001f55c        0x4 60000000
 .text.__hexnan
                0x000000000001f560      0x374 /usr/local/ps3dev/ppu/lib/gcc/powerpc64-ps3-elf/4.7.0/../../../../powerpc64-ps3-elf/lib/libc.a(lib_a-gdtoa-hexnan.o)
                0x000000000001f560                .__hexnan
 .text          0x000000000001f8d4        0x0 /usr/local/ps3dev/ppu/lib/gcc/powerpc64-ps3-elf/4.7.0/../../../../powerpc64-ps3-elf/lib/libc.a(lib_a-lock_internal.o)
 *fill*         0x000000000001f8d4        0x4 60000000
 .text.startup.init_metalock
                0x000000000001f8d8       0x48 /usr/local/ps3dev/ppu/lib/gcc/powerpc64-ps3-elf/4.7.0/../../../../powerpc64-ps3-elf/lib/libc.a(lib_a-lock_internal.o)
 .text.__libc_auto_lock_allocate
                0x000000000001f920       0x9c /usr/local/ps3dev/ppu/lib/gcc/powerpc64-ps3-elf/4.7.0/../../../../powerpc64-ps3-elf/lib/libc.a(lib_a-lock_internal.o)
                0x000000000001f920                .__libc_auto_lock_allocate
 .text          0x000000000001f9bc        0x0 /usr/local/ps3dev/ppu/lib/gcc/powerpc64-ps3-elf/4.7.0/../../../../powerpc64-ps3-elf/lib/libc.a(lib_a-memchr.o)
 *fill*         0x000000000001f9bc        0x4 60000000
 .text.memchr   0x000000000001f9c0      0x130 /usr/local/ps3dev/ppu/lib/gcc/powerpc64-ps3-elf/4.7.0/../../../../powerpc64-ps3-elf/lib/libc.a(lib_a-memchr.o)
                0x000000000001f9c0                .memchr
 .text          0x000000000001faf0        0x0 /usr/local/ps3dev/ppu/lib/gcc/powerpc64-ps3-elf/4.7.0/../../../../powerpc64-ps3-elf/lib/libc.a(lib_a-memcpy.o)
 .text.memcpy   0x000000000001faf0      0x108 /usr/local/ps3dev/ppu/lib/gcc/powerpc64-ps3-elf/4.7.0/../../../../powerpc64-ps3-elf/lib/libc.a(lib_a-memcpy.o)
                0x000000000001faf0                .memcpy
 .text          0x000000000001fbf8        0x0 /usr/local/ps3dev/ppu/lib/gcc/powerpc64-ps3-elf/4.7.0/../../../../powerpc64-ps3-elf/lib/libc.a(lib_a-mprec.o)
 .text._Balloc  0x000000000001fbf8       0xd8 /usr/local/ps3dev/ppu/lib/gcc/powerpc64-ps3-elf/4.7.0/../../../../powerpc64-ps3-elf/lib/libc.a(lib_a-mprec.o)
                0x000000000001fbf8                ._Balloc
 .text._Bfree   0x000000000001fcd0       0x34 /usr/local/ps3dev/ppu/lib/gcc/powerpc64-ps3-elf/4.7.0/../../../../powerpc64-ps3-elf/lib/libc.a(lib_a-mprec.o)
                0x000000000001fcd0                ._Bfree
 *fill*         0x000000000001fd04        0x4 60000000
 .text.__multadd
                0x000000000001fd08      0x16c /usr/local/ps3dev/ppu/lib/gcc/powerpc64-ps3-elf/4.7.0/../../../../powerpc64-ps3-elf/lib/libc.a(lib_a-mprec.o)
                0x000000000001fd08                .__multadd
 *fill*         0x000000000001fe74        0x4 60000000
 .text.__s2b    0x000000000001fe78      0x180 /usr/local/ps3dev/ppu/lib/gcc/powerpc64-ps3-elf/4.7.0/../../../../powerpc64-ps3-elf/lib/libc.a(lib_a-mprec.o)
                0x000000000001fe78                .__s2b
 .text.__hi0bits
                0x000000000001fff8       0x98 /usr/local/ps3dev/ppu/lib/gcc/powerpc64-ps3-elf/4.7.0/../../../../powerpc64-ps3-elf/lib/libc.a(lib_a-mprec.o)
                0x000000000001fff8                .__hi0bits
 .text.__lo0bits
                0x0000000000020090       0xec /usr/local/ps3dev/ppu/lib/gcc/powerpc64-ps3-elf/4.7.0/../../../../powerpc64-ps3-elf/lib/libc.a(lib_a-mprec.o)
                0x0000000000020090                .__lo0bits
 *fill*         0x000000000002017c        0x4 60000000
 .text.__i2b    0x0000000000020180       0x48 /usr/local/ps3dev/ppu/lib/gcc/powerpc64-ps3-elf/4.7.0/../../../../powerpc64-ps3-elf/lib/libc.a(lib_a-mprec.o)
                0x0000000000020180                .__i2b
 .text.__multiply
                0x00000000000201c8      0x28c /usr/local/ps3dev/ppu/lib/gcc/powerpc64-ps3-elf/4.7.0/../../../../powerpc64-ps3-elf/lib/libc.a(lib_a-mprec.o)
                0x00000000000201c8                .__multiply
 *fill*         0x0000000000020454        0x4 60000000
 .text.__pow5mult
                0x0000000000020458      0x15c /usr/local/ps3dev/ppu/lib/gcc/powerpc64-ps3-elf/4.7.0/../../../../powerpc64-ps3-elf/lib/libc.a(lib_a-mprec.o)
                0x0000000000020458                .__pow5mult
 *fill*         0x00000000000205b4        0x4 60000000
 .text.__lshift
                0x00000000000205b8      0x1c4 /usr/local/ps3dev/ppu/lib/gcc/powerpc64-ps3-elf/4.7.0/../../../../powerpc64-ps3-elf/lib/libc.a(lib_a-mprec.o)
                0x00000000000205b8                .__lshift
 *fill*         0x000000000002077c        0x4 60000000
 .text.__mcmp   0x0000000000020780       0x84 /usr/local/ps3dev/ppu/lib/gcc/powerpc64-ps3-elf/4.7.0/../../../../powerpc64-ps3-elf/lib/libc.a(lib_a-mprec.o)
                0x0000000000020780                .__mcmp
 *fill*         0x0000000000020804        0x4 60000000
 .text.__mdiff  0x0000000000020808      0x1fc /usr/local/ps3dev/ppu/lib/gcc/powerpc64-ps3-elf/4.7.0/../../../../powerpc64-ps3-elf/lib/libc.a(lib_a-mprec.o)
                0x0000000000020808                .__mdiff
 *fill*         0x0000000000020a04        0x4 60000000
 .text.__ulp    0x0000000000020a08       0xb0 /usr/local/ps3dev/ppu/lib/gcc/powerpc64-ps3-elf/4.7.0/../../../../powerpc64-ps3-elf/lib/libc.a(lib_a-mprec.o)
                0x0000000000020a08                .__ulp
 .text.__b2d    0x0000000000020ab8      0x1a0 /usr/local/ps3dev/ppu/lib/gcc/powerpc64-ps3-elf/4.7.0/../../../../powerpc64-ps3-elf/lib/libc.a(lib_a-mprec.o)
                0x0000000000020ab8                .__b2d
 .text.__d2b    0x0000000000020c58      0x1a4 /usr/local/ps3dev/ppu/lib/gcc/powerpc64-ps3-elf/4.7.0/../../../../powerpc64-ps3-elf/lib/libc.a(lib_a-mprec.o)
                0x0000000000020c58                .__d2b
 *fill*         0x0000000000020dfc        0x4 60000000
 .text.__ratio  0x0000000000020e00       0xf8 /usr/local/ps3dev/ppu/lib/gcc/powerpc64-ps3-elf/4.7.0/../../../../powerpc64-ps3-elf/lib/libc.a(lib_a-mprec.o)
                0x0000000000020e00                .__ratio
 .text._mprec_log10
                0x0000000000020ef8       0x54 /usr/local/ps3dev/ppu/lib/gcc/powerpc64-ps3-elf/4.7.0/../../../../powerpc64-ps3-elf/lib/libc.a(lib_a-mprec.o)
                0x0000000000020ef8                ._mprec_log10
 *fill*         0x0000000000020f4c        0x4 60000000
 .text.__copybits
                0x0000000000020f50       0x98 /usr/local/ps3dev/ppu/lib/gcc/powerpc64-ps3-elf/4.7.0/../../../../powerpc64-ps3-elf/lib/libc.a(lib_a-mprec.o)
                0x0000000000020f50                .__copybits
 .text.__any_on
                0x0000000000020fe8       0xcc /usr/local/ps3dev/ppu/lib/gcc/powerpc64-ps3-elf/4.7.0/../../../../powerpc64-ps3-elf/lib/libc.a(lib_a-mprec.o)
                0x0000000000020fe8                .__any_on
 .text          0x00000000000210b4        0x0 /usr/local/ps3dev/ppu/lib/gcc/powerpc64-ps3-elf/4.7.0/../../../../powerpc64-ps3-elf/lib/libc.a(lib_a-reallocr.o)
 *fill*         0x00000000000210b4        0x4 60000000
 .text._realloc_r
                0x00000000000210b8      0x70c /usr/local/ps3dev/ppu/lib/gcc/powerpc64-ps3-elf/4.7.0/../../../../powerpc64-ps3-elf/lib/libc.a(lib_a-reallocr.o)
                0x00000000000210b8                ._realloc_r
 .text          0x00000000000217c4        0x0 /usr/local/ps3dev/ppu/lib/gcc/powerpc64-ps3-elf/4.7.0/../../../../powerpc64-ps3-elf/lib/libc.a(lib_a-strncmp.o)
 *fill*         0x00000000000217c4        0x4 60000000
 .text.strncmp  0x00000000000217c8      0x168 /usr/local/ps3dev/ppu/lib/gcc/powerpc64-ps3-elf/4.7.0/../../../../powerpc64-ps3-elf/lib/libc.a(lib_a-strncmp.o)
                0x00000000000217c8                .strncmp
 .text          0x0000000000021930        0x0 /usr/local/ps3dev/ppu/lib/gcc/powerpc64-ps3-elf/4.7.0/../../../../powerpc64-ps3-elf/lib/libc.a(lib_a-svfiprintf.o)
 .text.__ssprint_r
                0x0000000000021930      0x2e8 /usr/local/ps3dev/ppu/lib/gcc/powerpc64-ps3-elf/4.7.0/../../../../powerpc64-ps3-elf/lib/libc.a(lib_a-svfiprintf.o)
                0x0000000000021930                .__ssprint_r
 .text._svfiprintf_r
                0x0000000000021c18      0xfa4 /usr/local/ps3dev/ppu/lib/gcc/powerpc64-ps3-elf/4.7.0/../../../../powerpc64-ps3-elf/lib/libc.a(lib_a-svfiprintf.o)
                0x0000000000021c18                ._svfiprintf_r
 .text          0x0000000000022bbc        0x0 /usr/local/ps3dev/ppu/lib/gcc/powerpc64-ps3-elf/4.7.0/../../../../powerpc64-ps3-elf/lib/libc.a(lib_a-abort.o)
 *fill*         0x0000000000022bbc        0x4 60000000
 .text.abort    0x0000000000022bc0       0x30 /usr/local/ps3dev/ppu/lib/gcc/powerpc64-ps3-elf/4.7.0/../../../../powerpc64-ps3-elf/lib/libc.a(lib_a-abort.o)
                0x0000000000022bc0                .abort
 .text          0x0000000000022bf0        0x0 /usr/local/ps3dev/ppu/lib/gcc/powerpc64-ps3-elf/4.7.0/../../../../powerpc64-ps3-elf/lib/libc.a(lib_a-callocr.o)
 .text._calloc_r
                0x0000000000022bf0       0xe0 /usr/local/ps3dev/ppu/lib/gcc/powerpc64-ps3-elf/4.7.0/../../../../powerpc64-ps3-elf/lib/libc.a(lib_a-callocr.o)
                0x0000000000022bf0                ._calloc_r
 .text          0x0000000000022cd0        0x0 /usr/local/ps3dev/ppu/lib/gcc/powerpc64-ps3-elf/4.7.0/../../../../powerpc64-ps3-elf/lib/libc.a(lib_a-fclose.o)
 .text._fclose_r
                0x0000000000022cd0      0x20c /usr/local/ps3dev/ppu/lib/gcc/powerpc64-ps3-elf/4.7.0/../../../../powerpc64-ps3-elf/lib/libc.a(lib_a-fclose.o)
                0x0000000000022cd0                ._fclose_r
 *fill*         0x0000000000022edc        0x4 60000000
 .text.fclose   0x0000000000022ee0       0x40 /usr/local/ps3dev/ppu/lib/gcc/powerpc64-ps3-elf/4.7.0/../../../../powerpc64-ps3-elf/lib/libc.a(lib_a-fclose.o)
                0x0000000000022ee0                .fclose
 .text          0x0000000000022f20        0x0 /usr/local/ps3dev/ppu/lib/gcc/powerpc64-ps3-elf/4.7.0/../../../../powerpc64-ps3-elf/lib/libc.a(lib_a-memmove.o)
 .text.memmove  0x0000000000022f20      0x158 /usr/local/ps3dev/ppu/lib/gcc/powerpc64-ps3-elf/4.7.0/../../../../powerpc64-ps3-elf/lib/libc.a(lib_a-memmove.o)
                0x0000000000022f20                .memmove
 .text          0x0000000000023078        0x0 /usr/local/ps3dev/ppu/lib/gcc/powerpc64-ps3-elf/4.7.0/../../../../powerpc64-ps3-elf/lib/libc.a(lib_a-signal.o)
 .text._init_signal_r
                0x0000000000023078       0x90 /usr/local/ps3dev/ppu/lib/gcc/powerpc64-ps3-elf/4.7.0/../../../../powerpc64-ps3-elf/lib/libc.a(lib_a-signal.o)
                0x0000000000023078                ._init_signal_r
 .text._signal_r
                0x0000000000023108       0x9c /usr/local/ps3dev/ppu/lib/gcc/powerpc64-ps3-elf/4.7.0/../../../../powerpc64-ps3-elf/lib/libc.a(lib_a-signal.o)
                0x0000000000023108                ._signal_r
 *fill*         0x00000000000231a4        0x4 60000000
 .text._raise_r
                0x00000000000231a8      0x10c /usr/local/ps3dev/ppu/lib/gcc/powerpc64-ps3-elf/4.7.0/../../../../powerpc64-ps3-elf/lib/libc.a(lib_a-signal.o)
                0x00000000000231a8                ._raise_r
 *fill*         0x00000000000232b4        0x4 60000000
 .text.__sigtramp_r
                0x00000000000232b8       0xd8 /usr/local/ps3dev/ppu/lib/gcc/powerpc64-ps3-elf/4.7.0/../../../../powerpc64-ps3-elf/lib/libc.a(lib_a-signal.o)
                0x00000000000232b8                .__sigtramp_r
 .text.raise    0x0000000000023390       0x40 /usr/local/ps3dev/ppu/lib/gcc/powerpc64-ps3-elf/4.7.0/../../../../powerpc64-ps3-elf/lib/libc.a(lib_a-signal.o)
                0x0000000000023390                .raise
 .text.signal   0x00000000000233d0       0x50 /usr/local/ps3dev/ppu/lib/gcc/powerpc64-ps3-elf/4.7.0/../../../../powerpc64-ps3-elf/lib/libc.a(lib_a-signal.o)
                0x00000000000233d0                .signal
 .text._init_signal
                0x0000000000023420       0x30 /usr/local/ps3dev/ppu/lib/gcc/powerpc64-ps3-elf/4.7.0/../../../../powerpc64-ps3-elf/lib/libc.a(lib_a-signal.o)
                0x0000000000023420                ._init_signal
 .text.__sigtramp
                0x0000000000023450       0x40 /usr/local/ps3dev/ppu/lib/gcc/powerpc64-ps3-elf/4.7.0/../../../../powerpc64-ps3-elf/lib/libc.a(lib_a-signal.o)
                0x0000000000023450                .__sigtramp
 .text          0x0000000000023490        0x0 /usr/local/ps3dev/ppu/lib/gcc/powerpc64-ps3-elf/4.7.0/../../../../powerpc64-ps3-elf/lib/libsysbase.a(close.o)
 .text._close_r
                0x0000000000023490       0x68 /usr/local/ps3dev/ppu/lib/gcc/powerpc64-ps3-elf/4.7.0/../../../../powerpc64-ps3-elf/lib/libsysbase.a(close.o)
                0x0000000000023490                ._close_r
 .text          0x00000000000234f8        0x0 /usr/local/ps3dev/ppu/lib/gcc/powerpc64-ps3-elf/4.7.0/../../../../powerpc64-ps3-elf/lib/libsysbase.a(sbrk.o)
 .text._sbrk_r  0x00000000000234f8       0x68 /usr/local/ps3dev/ppu/lib/gcc/powerpc64-ps3-elf/4.7.0/../../../../powerpc64-ps3-elf/lib/libsysbase.a(sbrk.o)
                0x00000000000234f8                ._sbrk_r
 .text          0x0000000000023560        0x0 /usr/local/ps3dev/ppu/lib/gcc/powerpc64-ps3-elf/4.7.0/../../../../powerpc64-ps3-elf/lib/libsysbase.a(_exit.o)
 .text._exit    0x0000000000023560       0x48 /usr/local/ps3dev/ppu/lib/gcc/powerpc64-ps3-elf/4.7.0/../../../../powerpc64-ps3-elf/lib/libsysbase.a(_exit.o)
                0x0000000000023560                ._exit
 .text          0x00000000000235a8        0x0 /usr/local/ps3dev/ppu/lib/gcc/powerpc64-ps3-elf/4.7.0/../../../../powerpc64-ps3-elf/lib/libsysbase.a(lseek.o)
 .text._lseek_r
                0x00000000000235a8       0x68 /usr/local/ps3dev/ppu/lib/gcc/powerpc64-ps3-elf/4.7.0/../../../../powerpc64-ps3-elf/lib/libsysbase.a(lseek.o)
                0x00000000000235a8                ._lseek_r
 .text          0x0000000000023610        0x0 /usr/local/ps3dev/ppu/lib/gcc/powerpc64-ps3-elf/4.7.0/../../../../powerpc64-ps3-elf/lib/libsysbase.a(read.o)
 .text._read_r  0x0000000000023610       0x68 /usr/local/ps3dev/ppu/lib/gcc/powerpc64-ps3-elf/4.7.0/../../../../powerpc64-ps3-elf/lib/libsysbase.a(read.o)
                0x0000000000023610                ._read_r
 .text          0x0000000000023678        0x0 /usr/local/ps3dev/ppu/lib/gcc/powerpc64-ps3-elf/4.7.0/../../../../powerpc64-ps3-elf/lib/libsysbase.a(write.o)
 .text._write_r
                0x0000000000023678       0x68 /usr/local/ps3dev/ppu/lib/gcc/powerpc64-ps3-elf/4.7.0/../../../../powerpc64-ps3-elf/lib/libsysbase.a(write.o)
                0x0000000000023678                ._write_r
 .text          0x00000000000236e0        0x0 /usr/local/ps3dev/ppu/lib/gcc/powerpc64-ps3-elf/4.7.0/../../../../powerpc64-ps3-elf/lib/libsysbase.a(lock.o)
 .text.sys_lwmutex_create
                0x00000000000236e0       0x90 /usr/local/ps3dev/ppu/lib/gcc/powerpc64-ps3-elf/4.7.0/../../../../powerpc64-ps3-elf/lib/libsysbase.a(lock.o)
                0x00000000000236e0                .sys_lwmutex_create
 .text.sys_lwmutex_destroy
                0x0000000000023770       0x80 /usr/local/ps3dev/ppu/lib/gcc/powerpc64-ps3-elf/4.7.0/../../../../powerpc64-ps3-elf/lib/libsysbase.a(lock.o)
                0x0000000000023770                .sys_lwmutex_destroy
 .text.sys_lwmutex_lock
                0x00000000000237f0       0x90 /usr/local/ps3dev/ppu/lib/gcc/powerpc64-ps3-elf/4.7.0/../../../../powerpc64-ps3-elf/lib/libsysbase.a(lock.o)
                0x00000000000237f0                .sys_lwmutex_lock
 .text.sys_lwmutex_trylock
                0x0000000000023880       0x80 /usr/local/ps3dev/ppu/lib/gcc/powerpc64-ps3-elf/4.7.0/../../../../powerpc64-ps3-elf/lib/libsysbase.a(lock.o)
                0x0000000000023880                .sys_lwmutex_trylock
 .text.sys_lwmutex_unlock
                0x0000000000023900       0x80 /usr/local/ps3dev/ppu/lib/gcc/powerpc64-ps3-elf/4.7.0/../../../../powerpc64-ps3-elf/lib/libsysbase.a(lock.o)
                0x0000000000023900                .sys_lwmutex_unlock
 .text          0x0000000000023980        0x0 /usr/local/ps3dev/ppu/lib/gcc/powerpc64-ps3-elf/4.7.0/../../../../powerpc64-ps3-elf/lib/libsysbase.a(getpid.o)
 .text._getpid_r
                0x0000000000023980       0x68 /usr/local/ps3dev/ppu/lib/gcc/powerpc64-ps3-elf/4.7.0/../../../../powerpc64-ps3-elf/lib/libsysbase.a(getpid.o)
                0x0000000000023980                ._getpid_r
 .text          0x00000000000239e8        0x0 /usr/local/ps3dev/ppu/lib/gcc/powerpc64-ps3-elf/4.7.0/../../../../powerpc64-ps3-elf/lib/libsysbase.a(kill.o)
 .text._kill_r  0x00000000000239e8       0x1c /usr/local/ps3dev/ppu/lib/gcc/powerpc64-ps3-elf/4.7.0/../../../../powerpc64-ps3-elf/lib/libsysbase.a(kill.o)
                0x00000000000239e8                ._kill_r
 .text          0x0000000000023a04        0x0 /usr/local/ps3dev/ppu/lib/gcc/powerpc64-ps3-elf/4.7.0/crtend.o
 *fill*         0x0000000000023a04        0x4 60000000
 .text.__do_global_ctors_aux
                0x0000000000023a08       0x5c /usr/local/ps3dev/ppu/lib/gcc/powerpc64-ps3-elf/4.7.0/crtend.o
 .text          0x0000000000023a64        0x0 /usr/local/ps3dev/ppu/lib/gcc/powerpc64-ps3-elf/4.7.0/../../../../powerpc64-ps3-elf/lib/lv2-crtn.o
 *(.text.*personality*)
 *(.gnu.warning)
 *(.sfpr .glink)
 .sfpr          0x0000000000000000        0x0 linker stubs
 *fill*         0x0000000000023a64        0x0 60000000
 .glink         0x0000000000000000        0x0 linker stubs

.fini           0x0000000000023a64       0x2c
 *(.fini)
 .fini          0x0000000000023a64        0xc /usr/local/ps3dev/ppu/lib/gcc/powerpc64-ps3-elf/4.7.0/../../../../powerpc64-ps3-elf/lib/lv2-crti.o
                0x0000000000023a64                ._fini
 .fini          0x0000000000023a70        0x8 /usr/local/ps3dev/ppu/lib/gcc/powerpc64-ps3-elf/4.7.0/crtbegin.o
 .fini          0x0000000000023a78        0x8 /usr/local/ps3dev/libpsl1ght/ppu/lib/librt.a(sbrk.o)
 .fini          0x0000000000023a80       0x10 /usr/local/ps3dev/ppu/lib/gcc/powerpc64-ps3-elf/4.7.0/../../../../powerpc64-ps3-elf/lib/lv2-crtn.o

.sceStub.text   0x0000000000023a90     0x1dc0
 *(.sceStub.text)
 .sceStub.text  0x0000000000023a90     0x1dc0 /usr/local/ps3dev/libpsl1ght/ppu/lib/liblv2.a(sprx.o)
                0x0000000000023a90                __sysGetSystemTime
                0x0000000000023ad0                __sysGetSystemSwVersion
                0x0000000000023b10                __sysGetTemperature
                0x0000000000023b50                __sysGetRandomNumber
                0x0000000000023b90                __sysGetRtcStatus
                0x0000000000023bd0                __sysBoardStorageRead
                0x0000000000023c10                __sysBoardStorageWrite
                0x0000000000023c50                __sysProcessIsStack
                0x0000000000023c90                .sysProcessExit
                0x0000000000023c90                __sysProcessExit
                0x0000000000023cd0                __sysProcessExitspawn
                0x0000000000023d10                __sysProcessExitSpawn2Ex
                0x0000000000023d50                __sysProcessExitSpawnWithLevel
                0x0000000000023d90                __sysProcessAtExitSpawn
                0x0000000000023dd0                __sysProcess_At_ExitSpawn
                0x0000000000023e10                __sysPrxRegisterLibrary
                0x0000000000023e50                __sysPrxUnregisterLibrary
                0x0000000000023e90                __sysPrxStartModule
                0x0000000000023ed0                __sysPrxStopModule
                0x0000000000023f10                __sysPrxLoadModule
                0x0000000000023f50                __sysPrxLoadModuleByFd
                0x0000000000023f90                __sysPrxLoadModuleList
                0x0000000000023fd0                __sysPrxLoadModuleListOnMemcontainer
                0x0000000000024010                __sysPrxLoadModuleOnMemcontainer
                0x0000000000024050                __sysPrxLoadModuleOnMemcontainerByFd
                0x0000000000024090                __sysPrxGetModuleInfo
                0x00000000000240d0                __sysPrxGetModuleList
                0x0000000000024110                __sysPrxGetModuleId
                0x0000000000024150                __sysPrxGetModuleIdByAddress
                0x0000000000024190                __sysPrxGetModuleIdByName
                0x00000000000241d0                __sysPrxUnloadModule
                0x0000000000024210                __sysPrxExitSpawnWithLevel
                0x0000000000024250                __sysThreadCreateEx
                0x0000000000024290                __sysThreadExit
                0x00000000000242d0                __sysThreadGetId
                0x0000000000024310                __sysThreadOnce
                0x0000000000024350                __sysThreadInitialzeTLS
                0x0000000000024390                __sysThreadRegisterAtexit
                0x00000000000243d0                __sysThreadUnregisterAtexit
                0x0000000000024410                __sysInterruptThreadDisestablish
                0x0000000000024450                __sysLwMutexCreate
                0x0000000000024450                .sysLwMutexCreate
                0x0000000000024490                __sysLwMutexDestroy
                0x0000000000024490                .sysLwMutexDestroy
                0x00000000000244d0                .sysLwMutexLock
                0x00000000000244d0                __sysLwMutexLock
                0x0000000000024510                .sysLwMutexTryLock
                0x0000000000024510                __sysLwMutexTryLock
                0x0000000000024550                __sysLwMutexUnlock
                0x0000000000024550                .sysLwMutexUnlock
                0x0000000000024590                __sysLwCondCreate
                0x00000000000245d0                __sysLwCondWait
                0x0000000000024610                __sysLwCondSignal
                0x0000000000024650                __sysLwCondSignalTo
                0x0000000000024690                __sysLwCondSignalAll
                0x00000000000246d0                __sysLwCondDestroy
                0x0000000000024710                .sysSpinlockInitialize
                0x0000000000024710                __sysSpinlockInitialize
                0x0000000000024750                __sysSpinlockLock
                0x0000000000024750                .sysSpinlockLock
                0x0000000000024790                __sysSpinlockTryLock
                0x00000000000247d0                .sysSpinlockUnlock
                0x00000000000247d0                __sysSpinlockUnlock
                0x0000000000024810                __sysWatchdogClear
                0x0000000000024850                __sysWatchdogStart
                0x0000000000024890                __sysWatchdogStop
                0x00000000000248d0                __sysMalloc
                0x0000000000024910                __sysMemalign
                0x0000000000024950                __sysMemchr
                0x0000000000024990                __sysMemcmp
                0x00000000000249d0                __sysMemcpy
                0x0000000000024a10                __sysMemmove
                0x0000000000024a50                __sysMemset
                0x0000000000024a90                __sysFree
                0x0000000000024ad0                __sysHeapAllocHeapMemory
                0x0000000000024b10                __sysHeapCreateHeap
                0x0000000000024b50                __sysHeapDeleteHeap
                0x0000000000024b90                __sysHeapFree
                0x0000000000024bd0                __sysHeapGetMallInfo
                0x0000000000024c10                __sysHeapGetTotalFreeSize
                0x0000000000024c50                __sysHeapMalloc
                0x0000000000024c90                __sysHeapMemalign
                0x0000000000024cd0                __sysHeapStats
                0x0000000000024d10                __sysQsort
                0x0000000000024d50                __sysMempoolCreate
                0x0000000000024d90                __sysMempoolDestroy
                0x0000000000024dd0                __sysMempoolGetCount
                0x0000000000024e10                __sysMempoolAllocateBlock
                0x0000000000024e50                __sysMempoolTryAllocateBlock
                0x0000000000024e90                __sysMempoolFreeBlock
                0x0000000000024ed0                __sysMMapperFreeMemory
                0x0000000000024ed0                .sysMMapperFreeMemory
                0x0000000000024f10                __sysMMapperMapMemory
                0x0000000000024f50                __sysMMapperUnmapMemory
                0x0000000000024f50                .sysMMapperUnmapMemory
                0x0000000000024f90                __sysMMapperAllocateMemory
                0x0000000000024f90                .sysMMapperAllocateMemory
                0x0000000000024fd0                __sysMMapperAllocateMemoryFromContainer
                0x0000000000025010                __sysStrlen
                0x0000000000025050                __sysStrcpy
                0x0000000000025090                __sysStrncpy
                0x00000000000250d0                __sysStrcat
                0x0000000000025110                __sysStrncat
                0x0000000000025150                __sysStrchr
                0x0000000000025190                __sysStrrchr
                0x00000000000251d0                __sysStrcmp
                0x0000000000025210                __sysStrncmp
                0x0000000000025250                __sysStrncasecmp
                0x0000000000025290                __sysToLower
                0x00000000000252d0                __sysToUpper
                0x0000000000025310                __sysSpuElfGetSegments
                0x0000000000025350                __sysSpuElfGetInformation
                0x0000000000025390                __sysSpuRawLoad
                0x00000000000253d0                __sysSpuRawImageLoad
                0x0000000000025410                __sysSpuImageClose
                0x0000000000025450                __sysSpuImageImport
                0x0000000000025490                __sysSpuPrintfAttachGroup
                0x00000000000254d0                __sysSpuPrintfAttachThread
                0x0000000000025510                __sysSpuPrintfDetachGroup
                0x0000000000025550                __sysSpuPrintfDetach_Tread
                0x0000000000025590                __sysSpuPrintfFinalize
                0x00000000000255d0                __sysSpuPrintfInitialize
                0x0000000000025610                __sysConsoleGetc
                0x0000000000025650                __sysConsolePutc
                0x0000000000025690                __sysConsoleWrite
                0x00000000000256d0                __sysPrintf
                0x0000000000025710                __sysSprintf
                0x0000000000025750                __sysSnprintf
                0x0000000000025790                __sysVprintf
                0x00000000000257d0                __sysVsprintf
                0x0000000000025810                __sysVsnprintf
 *(SORT(.sceStub.text.*))
                0x0000000000025850                PROVIDE (__etext, .)
                0x0000000000025850                PROVIDE (_etext, .)
                0x0000000000025850                PROVIDE (etext, .)

.eh_frame_hdr   0x0000000000025850        0x0
 *(.eh_frame_hdr)
 .eh_frame_hdr  0x0000000000000000        0x0 /usr/local/ps3dev/ppu/lib/gcc/powerpc64-ps3-elf/4.7.0/../../../../powerpc64-ps3-elf/lib/lv2-crtn.o

.eh_frame       0x0000000000025850        0x4
 *(.eh_frame)
 .eh_frame      0x0000000000025850        0x0 linker stubs
 .eh_frame      0x0000000000025850        0x0 /usr/local/ps3dev/ppu/lib/gcc/powerpc64-ps3-elf/4.7.0/crtbegin.o
 .eh_frame      0x0000000000025850        0x4 /usr/local/ps3dev/ppu/lib/gcc/powerpc64-ps3-elf/4.7.0/crtend.o

.gcc_except_table
 *(.gcc_except_table .gcc_except_table.*)

.rodata.sceResident
                0x0000000000025854       0x12
 *(.rodata.sceResident)
 .rodata.sceResident
                0x0000000000025854       0x12 /usr/local/ps3dev/libpsl1ght/ppu/lib/liblv2.a(sprx.o)

.rodata.sceFNID
                0x0000000000025868      0x1dc
 *(.rodata.sceFNID .rodata.sceFNID.*)
 .rodata.sceFNID
                0x0000000000025868      0x1dc /usr/local/ps3dev/libpsl1ght/ppu/lib/liblv2.a(sprx.o)
                0x0000000000025868                sysGetSystemTime_fnid
                0x0000000000025868                sysPrxForUser
                0x000000000002586c                sysGetSystemSwVersion_fnid
                0x0000000000025870                sysGetTemperature_fnid
                0x0000000000025874                sysGetRandomNumber_fnid
                0x0000000000025878                sysGetRtcStatus_fnid
                0x000000000002587c                sysBoardStorageRead_fnid
                0x0000000000025880                sysBoardStorageWrite_fnid
                0x0000000000025884                sysProcessIsStack_fnid
                0x0000000000025888                sysProcessExit_fnid
                0x000000000002588c                sysProcessExitspawn_fnid
                0x0000000000025890                sysProcessExitSpawn2Ex_fnid
                0x0000000000025894                sysProcessExitSpawnWithLevel_fnid
                0x0000000000025898                sysProcessAtExitSpawn_fnid
                0x000000000002589c                sysProcess_At_ExitSpawn_fnid
                0x00000000000258a0                sysPrxRegisterLibrary_fnid
                0x00000000000258a4                sysPrxUnregisterLibrary_fnid
                0x00000000000258a8                sysPrxStartModule_fnid
                0x00000000000258ac                sysPrxStopModule_fnid
                0x00000000000258b0                sysPrxLoadModule_fnid
                0x00000000000258b4                sysPrxLoadModuleByFd_fnid
                0x00000000000258b8                sysPrxLoadModuleList_fnid
                0x00000000000258bc                sysPrxLoadModuleListOnMemcontainer_fnid
                0x00000000000258c0                sysPrxLoadModuleOnMemcontainer_fnid
                0x00000000000258c4                sysPrxLoadModuleOnMemcontainerByFd_fnid
                0x00000000000258c8                sysPrxGetModuleInfo_fnid
                0x00000000000258cc                sysPrxGetModuleList_fnid
                0x00000000000258d0                sysPrxGetModuleId_fnid
                0x00000000000258d4                sysPrxGetModuleIdByAddress_fnid
                0x00000000000258d8                sysPrxGetModuleIdByName_fnid
                0x00000000000258dc                sysPrxUnloadModule_fnid
                0x00000000000258e0                sysPrxExitSpawnWithLevel_fnid
                0x00000000000258e4                sysThreadCreateEx_fnid
                0x00000000000258e8                sysThreadExit_fnid
                0x00000000000258ec                sysThreadGetId_fnid
                0x00000000000258f0                sysThreadOnce_fnid
                0x00000000000258f4                sysThreadInitialzeTLS_fnid
                0x00000000000258f8                sysThreadRegisterAtexit_fnid
                0x00000000000258fc                sysThreadUnregisterAtexit_fnid
                0x0000000000025900                sysInterruptThreadDisestablish_fnid
                0x0000000000025904                sysLwMutexCreate_fnid
                0x0000000000025908                sysLwMutexDestroy_fnid
                0x000000000002590c                sysLwMutexLock_fnid
                0x0000000000025910                sysLwMutexTryLock_fnid
                0x0000000000025914                sysLwMutexUnlock_fnid
                0x0000000000025918                sysLwCondCreate_fnid
                0x000000000002591c                sysLwCondWait_fnid
                0x0000000000025920                sysLwCondSignal_fnid
                0x0000000000025924                sysLwCondSignalTo_fnid
                0x0000000000025928                sysLwCondSignalAll_fnid
                0x000000000002592c                sysLwCondDestroy_fnid
                0x0000000000025930                sysSpinlockInitialize_fnid
                0x0000000000025934                sysSpinlockLock_fnid
                0x0000000000025938                sysSpinlockTryLock_fnid
                0x000000000002593c                sysSpinlockUnlock_fnid
                0x0000000000025940                sysWatchdogClear_fnid
                0x0000000000025944                sysWatchdogStart_fnid
                0x0000000000025948                sysWatchdogStop_fnid
                0x000000000002594c                sysMalloc_fnid
                0x0000000000025950                sysMemalign_fnid
                0x0000000000025954                sysMemchr_fnid
                0x0000000000025958                sysMemcmp_fnid
                0x000000000002595c                sysMemcpy_fnid
                0x0000000000025960                sysMemmove_fnid
                0x0000000000025964                sysMemset_fnid
                0x0000000000025968                sysFree_fnid
                0x000000000002596c                sysHeapAllocHeapMemory_fnid
                0x0000000000025970                sysHeapCreateHeap_fnid
                0x0000000000025974                sysHeapDeleteHeap_fnid
                0x0000000000025978                sysHeapFree_fnid
                0x000000000002597c                sysHeapGetMallInfo_fnid
                0x0000000000025980                sysHeapGetTotalFreeSize_fnid
                0x0000000000025984                sysHeapMalloc_fnid
                0x0000000000025988                sysHeapMemalign_fnid
                0x000000000002598c                sysHeapStats_fnid
                0x0000000000025990                sysQsort_fnid
                0x0000000000025994                sysMempoolCreate_fnid
                0x0000000000025998                sysMempoolDestroy_fnid
                0x000000000002599c                sysMempoolGetCount_fnid
                0x00000000000259a0                sysMempoolAllocateBlock_fnid
                0x00000000000259a4                sysMempoolTryAllocateBlock_fnid
                0x00000000000259a8                sysMempoolFreeBlock_fnid
                0x00000000000259ac                sysMMapperFreeMemory_fnid
                0x00000000000259b0                sysMMapperMapMemory_fnid
                0x00000000000259b4                sysMMapperUnmapMemory_fnid
                0x00000000000259b8                sysMMapperAllocateMemory_fnid
                0x00000000000259bc                sysMMapperAllocateMemoryFromContainer_fnid
                0x00000000000259c0                sysStrlen_fnid
                0x00000000000259c4                sysStrcpy_fnid
                0x00000000000259c8                sysStrncpy_fnid
                0x00000000000259cc                sysStrcat_fnid
                0x00000000000259d0                sysStrncat_fnid
                0x00000000000259d4                sysStrchr_fnid
                0x00000000000259d8                sysStrrchr_fnid
                0x00000000000259dc                sysStrcmp_fnid
                0x00000000000259e0                sysStrncmp_fnid
                0x00000000000259e4                sysStrncasecmp_fnid
                0x00000000000259e8                sysToLower_fnid
                0x00000000000259ec                sysToUpper_fnid
                0x00000000000259f0                sysSpuElfGetSegments_fnid
                0x00000000000259f4                sysSpuElfGetInformation_fnid
                0x00000000000259f8                sysSpuRawLoad_fnid
                0x00000000000259fc                sysSpuRawImageLoad_fnid
                0x0000000000025a00                sysSpuImageClose_fnid
                0x0000000000025a04                sysSpuImageImport_fnid
                0x0000000000025a08                sysSpuPrintfAttachGroup_fnid
                0x0000000000025a0c                sysSpuPrintfAttachThread_fnid
                0x0000000000025a10                sysSpuPrintfDetachGroup_fnid
                0x0000000000025a14                sysSpuPrintfDetach_Tread_fnid
                0x0000000000025a18                sysSpuPrintfFinalize_fnid
                0x0000000000025a1c                sysSpuPrintfInitialize_fnid
                0x0000000000025a20                sysConsoleGetc_fnid
                0x0000000000025a24                sysConsolePutc_fnid
                0x0000000000025a28                sysConsoleWrite_fnid
                0x0000000000025a2c                sysPrintf_fnid
                0x0000000000025a30                sysSprintf_fnid
                0x0000000000025a34                sysSnprintf_fnid
                0x0000000000025a38                sysVprintf_fnid
                0x0000000000025a3c                sysVsprintf_fnid
                0x0000000000025a40                sysVsnprintf_fnid

.rodata.sceVNID
 *(.rodata.sceVNID .rodata.sceVNID.*)

.rodata.sceTNID
 *(.rodata.sceTNID .rodata.sceTNID.*)

.rodata.sceVStub
 *(.rodata.sceVStub)
 *(SORT(.rodata.sceVStub.*))
                0x0000000000025a44                PROVIDE (__libentstart, .)

.lib.ent.top
 *(.lib.ent.top)

.lib.ent        0x0000000000025a44        0x0
 *(.lib.ent)
 .lib.ent       0x0000000000025a44        0x0 /usr/local/ps3dev/ppu/lib/gcc/powerpc64-ps3-elf/4.7.0/../../../../powerpc64-ps3-elf/lib/lv2-sprx.o

.lib.ent.btm
 *(.lib.ent.btm)
                0x0000000000025a44                PROVIDE (__libentend, .)
                0x0000000000025a44                PROVIDE (__libstubstart, .)

.lib.stub.top
 *(.lib.stub.top)

.lib.stub       0x0000000000025a44       0x2c
 *(.lib.stub)
 .lib.stub      0x0000000000025a44        0x0 /usr/local/ps3dev/ppu/lib/gcc/powerpc64-ps3-elf/4.7.0/../../../../powerpc64-ps3-elf/lib/lv2-sprx.o
 .lib.stub      0x0000000000025a44       0x2c /usr/local/ps3dev/libpsl1ght/ppu/lib/liblv2.a(sprx.o)

.lib.stub.btm
 *(.lib.stub.btm)
                0x0000000000025a70                PROVIDE (__libstubend, .)

.ppu_rodata
 *(.ppu_rodata .ppu_rodata.*)

.sys_proc_param
 *(.sys_proc_param)

.sys_proc_prx_param
                0x0000000000025a70       0x28
 *(.sys_proc_prx_param)
 .sys_proc_prx_param
                0x0000000000025a70       0x28 /usr/local/ps3dev/ppu/lib/gcc/powerpc64-ps3-elf/4.7.0/../../../../powerpc64-ps3-elf/lib/lv2-sprx.o
                0x0000000000030000                . = ALIGN (0x10000)

.ppu_data
 *(.ppu_data .ppu_data.*)

.sdata2
 *(.sdata2 .sdata2.* .gnu.linkonce.s2.*)

.sbss2
 *(.sbss2 .sbss2.* .gnu.linkonce.sb2.*)

.eh_frame
 *(.eh_frame)

.gcc_except_table
 *(.gcc_except_table .gcc_except_table.*)
                0x0000000000030000                . = ALIGN (0x8)

.preinit_array  0x0000000000030000        0x0
                0x0000000000030000                PROVIDE (__preinit_array_start, .)
 *(.preinit_array)
                0x0000000000030000                PROVIDE (__preinit_array_end, .)

.init_array     0x0000000000030000        0x0
                0x0000000000030000                PROVIDE (__init_array_start, .)
 *(SORT(.init_array.*))
 *(.init_array)
                0x0000000000030000                PROVIDE (__init_array_end, .)

.fini_array     0x0000000000030000        0x0
                0x0000000000030000                PROVIDE (__fini_array_start, .)
 *(.fini_array)
 *(SORT(.fini_array.*))
                0x0000000000030000                PROVIDE (__fini_array_end, .)

.ctors          0x0000000000030000       0x28
 *crtbegin.o(.ctors)
 .ctors         0x0000000000030000        0x8 /usr/local/ps3dev/ppu/lib/gcc/powerpc64-ps3-elf/4.7.0/crtbegin.o
 *crtbegin?.o(.ctors)
 *(EXCLUDE_FILE(*crtend?.o *crtend.o) .ctors)
 *(SORT(.ctors.*))
 .ctors.65430   0x0000000000030008        0x8 /usr/local/ps3dev/ppu/lib/gcc/powerpc64-ps3-elf/4.7.0/../../../../powerpc64-ps3-elf/lib/libc.a(lib_a-lock_internal.o)
 .ctors.65431   0x0000000000030010        0x8 /usr/local/ps3dev/ppu/lib/gcc/powerpc64-ps3-elf/4.7.0/../../../../powerpc64-ps3-elf/lib/lv2-crt0.o
 .ctors.65432   0x0000000000030018        0x8 /usr/local/ps3dev/libpsl1ght/ppu/lib/librt.a(sbrk.o)
 *(.ctors)
 .ctors         0x0000000000030020        0x8 /usr/local/ps3dev/ppu/lib/gcc/powerpc64-ps3-elf/4.7.0/crtend.o

.dtors          0x0000000000030028       0x10
 *crtbegin.o(.dtors)
 .dtors         0x0000000000030028        0x8 /usr/local/ps3dev/ppu/lib/gcc/powerpc64-ps3-elf/4.7.0/crtbegin.o
 *crtbegin?.o(.dtors)
 *(EXCLUDE_FILE(*crtend?.o *crtend.o) .dtors)
 *(SORT(.dtors.*))
 *(.dtors)
 .dtors         0x0000000000030030        0x8 /usr/local/ps3dev/ppu/lib/gcc/powerpc64-ps3-elf/4.7.0/crtend.o
                0x0000000000030030                __DTOR_END__

.jcr            0x0000000000030038        0x8
 *(.jcr)
 .jcr           0x0000000000030038        0x0 /usr/local/ps3dev/ppu/lib/gcc/powerpc64-ps3-elf/4.7.0/crtbegin.o
 .jcr           0x0000000000030038        0x8 /usr/local/ps3dev/ppu/lib/gcc/powerpc64-ps3-elf/4.7.0/crtend.o

.data.rel.ro
 *(.data.rel.ro.local*)
 *(.data.rel.ro*)

.dynamic
 *(.dynamic)

.data.sceFStub  0x0000000000030040      0x1dc
 *(.data.sceFStub)
 *(SORT(.data.sceFStub.*))
 .data.sceFStub.sysPrxForUser
                0x0000000000030040      0x1dc /usr/local/ps3dev/libpsl1ght/ppu/lib/liblv2.a(sprx.o)
                0x0000000000030040                sysGetSystemTime_stub
                0x0000000000030044                sysGetSystemSwVersion_stub
                0x0000000000030048                sysGetTemperature_stub
                0x000000000003004c                sysGetRandomNumber_stub
                0x0000000000030050                sysGetRtcStatus_stub
                0x0000000000030054                sysBoardStorageRead_stub
                0x0000000000030058                sysBoardStorageWrite_stub
                0x000000000003005c                sysProcessIsStack_stub
                0x0000000000030060                sysProcessExit_stub
                0x0000000000030064                sysProcessExitspawn_stub
                0x0000000000030068                sysProcessExitSpawn2Ex_stub
                0x000000000003006c                sysProcessExitSpawnWithLevel_stub
                0x0000000000030070                sysProcessAtExitSpawn_stub
                0x0000000000030074                sysProcess_At_ExitSpawn_stub
                0x0000000000030078                sysPrxRegisterLibrary_stub
                0x000000000003007c                sysPrxUnregisterLibrary_stub
                0x0000000000030080                sysPrxStartModule_stub
                0x0000000000030084                sysPrxStopModule_stub
                0x0000000000030088                sysPrxLoadModule_stub
                0x000000000003008c                sysPrxLoadModuleByFd_stub
                0x0000000000030090                sysPrxLoadModuleList_stub
                0x0000000000030094                sysPrxLoadModuleListOnMemcontainer_stub
                0x0000000000030098                sysPrxLoadModuleOnMemcontainer_stub
                0x000000000003009c                sysPrxLoadModuleOnMemcontainerByFd_stub
                0x00000000000300a0                sysPrxGetModuleInfo_stub
                0x00000000000300a4                sysPrxGetModuleList_stub
                0x00000000000300a8                sysPrxGetModuleId_stub
                0x00000000000300ac                sysPrxGetModuleIdByAddress_stub
                0x00000000000300b0                sysPrxGetModuleIdByName_stub
                0x00000000000300b4                sysPrxUnloadModule_stub
                0x00000000000300b8                sysPrxExitSpawnWithLevel_stub
                0x00000000000300bc                sysThreadCreateEx_stub
                0x00000000000300c0                sysThreadExit_stub
                0x00000000000300c4                sysThreadGetId_stub
                0x00000000000300c8                sysThreadOnce_stub
                0x00000000000300cc                sysThreadInitialzeTLS_stub
                0x00000000000300d0                sysThreadRegisterAtexit_stub
                0x00000000000300d4                sysThreadUnregisterAtexit_stub
                0x00000000000300d8                sysInterruptThreadDisestablish_stub
                0x00000000000300dc                sysLwMutexCreate_stub
                0x00000000000300e0                sysLwMutexDestroy_stub
                0x00000000000300e4                sysLwMutexLock_stub
                0x00000000000300e8                sysLwMutexTryLock_stub
                0x00000000000300ec                sysLwMutexUnlock_stub
                0x00000000000300f0                sysLwCondCreate_stub
                0x00000000000300f4                sysLwCondWait_stub
                0x00000000000300f8                sysLwCondSignal_stub
                0x00000000000300fc                sysLwCondSignalTo_stub
                0x0000000000030100                sysLwCondSignalAll_stub
                0x0000000000030104                sysLwCondDestroy_stub
                0x0000000000030108                sysSpinlockInitialize_stub
                0x000000000003010c                sysSpinlockLock_stub
                0x0000000000030110                sysSpinlockTryLock_stub
                0x0000000000030114                sysSpinlockUnlock_stub
                0x0000000000030118                sysWatchdogClear_stub
                0x000000000003011c                sysWatchdogStart_stub
                0x0000000000030120                sysWatchdogStop_stub
                0x0000000000030124                sysMalloc_stub
                0x0000000000030128                sysMemalign_stub
                0x000000000003012c                sysMemchr_stub
                0x0000000000030130                sysMemcmp_stub
                0x0000000000030134                sysMemcpy_stub
                0x0000000000030138                sysMemmove_stub
                0x000000000003013c                sysMemset_stub
                0x0000000000030140                sysFree_stub
                0x0000000000030144                sysHeapAllocHeapMemory_stub
                0x0000000000030148                sysHeapCreateHeap_stub
                0x000000000003014c                sysHeapDeleteHeap_stub
                0x0000000000030150                sysHeapFree_stub
                0x0000000000030154                sysHeapGetMallInfo_stub
                0x0000000000030158                sysHeapGetTotalFreeSize_stub
                0x000000000003015c                sysHeapMalloc_stub
                0x0000000000030160                sysHeapMemalign_stub
                0x0000000000030164                sysHeapStats_stub
                0x0000000000030168                sysQsort_stub
                0x000000000003016c                sysMempoolCreate_stub
                0x0000000000030170                sysMempoolDestroy_stub
                0x0000000000030174                sysMempoolGetCount_stub
                0x0000000000030178                sysMempoolAllocateBlock_stub
                0x000000000003017c                sysMempoolTryAllocateBlock_stub
                0x0000000000030180                sysMempoolFreeBlock_stub
                0x0000000000030184                sysMMapperFreeMemory_stub
                0x0000000000030188                sysMMapperMapMemory_stub
                0x000000000003018c                sysMMapperUnmapMemory_stub
                0x0000000000030190                sysMMapperAllocateMemory_stub
                0x0000000000030194                sysMMapperAllocateMemoryFromContainer_stub
                0x0000000000030198                sysStrlen_stub
                0x000000000003019c                sysStrcpy_stub
                0x00000000000301a0                sysStrncpy_stub
                0x00000000000301a4                sysStrcat_stub
                0x00000000000301a8                sysStrncat_stub
                0x00000000000301ac                sysStrchr_stub
                0x00000000000301b0                sysStrrchr_stub
                0x00000000000301b4                sysStrcmp_stub
                0x00000000000301b8                sysStrncmp_stub
                0x00000000000301bc                sysStrncasecmp_stub
                0x00000000000301c0                sysToLower_stub
                0x00000000000301c4                sysToUpper_stub
                0x00000000000301c8                sysSpuElfGetSegments_stub
                0x00000000000301cc                sysSpuElfGetInformation_stub
                0x00000000000301d0                sysSpuRawLoad_stub
                0x00000000000301d4                sysSpuRawImageLoad_stub
                0x00000000000301d8                sysSpuImageClose_stub
                0x00000000000301dc                sysSpuImageImport_stub
                0x00000000000301e0                sysSpuPrintfAttachGroup_stub
                0x00000000000301e4                sysSpuPrintfAttachThread_stub
                0x00000000000301e8                sysSpuPrintfDetachGroup_stub
                0x00000000000301ec                sysSpuPrintfDetach_Tread_stub
                0x00000000000301f0                sysSpuPrintfFinalize_stub
                0x00000000000301f4                sysSpuPrintfInitialize_stub
                0x00000000000301f8                sysConsoleGetc_stub
                0x00000000000301fc                sysConsolePutc_stub
                0x0000000000030200                sysConsoleWrite_stub
                0x0000000000030204                sysPrintf_stub
                0x0000000000030208                sysSprintf_stub
                0x000000000003020c                sysSnprintf_stub
                0x0000000000030210                sysVprintf_stub
                0x0000000000030214                sysVsprintf_stub
                0x0000000000030218                sysVsnprintf_stub

.toc1
 *(.toc1)

.opd            0x0000000000030220     0x1ef0
 *(.opd)
 .opd           0x0000000000030220       0x30 /usr/local/ps3dev/ppu/lib/gcc/powerpc64-ps3-elf/4.7.0/../../../../powerpc64-ps3-elf/lib/lv2-crti.o
                0x0000000000030220                _init
                0x0000000000030238                _fini
 .opd           0x0000000000030250       0x60 /usr/local/ps3dev/ppu/lib/gcc/powerpc64-ps3-elf/4.7.0/crtbegin.o
 .opd           0x00000000000302b0       0x48 /usr/local/ps3dev/ppu/lib/gcc/powerpc64-ps3-elf/4.7.0/../../../../powerpc64-ps3-elf/lib/lv2-crt0.o
                0x00000000000302e0                _initialize
 .opd           0x00000000000302f8       0x48 /usr/local/ps3dev/libpsl1ght/ppu/lib/librt.a(sbrk.o)
                0x0000000000030328                __librt_sbrk_r
 .opd           0x0000000000030340       0x18 /usr/local/ps3dev/libpsl1ght/ppu/lib/librt.a(exit.o)
                0x0000000000030340                __librt_exit
 .opd           0x0000000000030358       0x18 /usr/local/ps3dev/libpsl1ght/ppu/lib/librt.a(close.o)
                0x0000000000030358                __librt_close_r
 .opd           0x0000000000030370       0x30 /usr/local/ps3dev/libpsl1ght/ppu/lib/librt.a(lseek.o)
                0x0000000000030370                __librt_lseek_r
                0x0000000000030388                __librt_lseek64_r
 .opd           0x00000000000303a0       0x18 /usr/local/ps3dev/libpsl1ght/ppu/lib/librt.a(read.o)
                0x00000000000303a0                __librt_read_r
 .opd           0x00000000000303b8       0x18 /usr/local/ps3dev/libpsl1ght/ppu/lib/librt.a(open.o)
                0x00000000000303b8                __librt_open_r
 .opd           0x00000000000303d0       0x30 /usr/local/ps3dev/libpsl1ght/ppu/lib/librt.a(sleep.o)
                0x00000000000303d0                __librt_usleep_r
                0x00000000000303e8                __librt_sleep_r
 .opd           0x0000000000030400       0x18 /usr/local/ps3dev/libpsl1ght/ppu/lib/librt.a(write.o)
                0x0000000000030400                __librt_write_r
 .opd           0x0000000000030418       0x78 /usr/local/ps3dev/libpsl1ght/ppu/lib/librt.a(fstat.o)
                0x0000000000030430                __librt_fstat_r
                0x0000000000030448                __librt_fstat64_r
                0x0000000000030460                __librt_stat_r
                0x0000000000030478                __librt_stat64_r
 .opd           0x0000000000030490      0x150 /usr/local/ps3dev/libpsl1ght/ppu/lib/librt.a(socket.o)
                0x0000000000030490                accept
                0x00000000000304a8                bind
                0x00000000000304c0                connect
                0x00000000000304d8                listen
                0x00000000000304f0                socket
                0x0000000000030508                send
                0x0000000000030520                sendto
                0x0000000000030538                recv
                0x0000000000030550                recvfrom
                0x0000000000030568                shutdown
                0x0000000000030580                inet_aton
                0x0000000000030598                inet_pton
                0x00000000000305b0                select
                0x00000000000305c8                closesocket
 .opd           0x00000000000305e0       0x78 /usr/local/ps3dev/libpsl1ght/ppu/lib/librt.a(lock.o)
                0x00000000000305e0                __librt_sys_lwmutex_create_r
                0x00000000000305f8                __librt_sys_lwmutex_destroy_r
                0x0000000000030610                __librt_sys_lwmutex_lock_r
                0x0000000000030628                __librt_sys_lwmutex_trylock_r
                0x0000000000030640                __librt_sys_lwmutex_unlock_r
 .opd           0x0000000000030658       0xc0 /usr/local/ps3dev/libpsl1ght/ppu/lib/librt.a(dirent.o)
                0x0000000000030670                __librt_opendir_r
                0x0000000000030688                __librt_readdir_r
                0x00000000000306a0                __librt_readdir_r_r
                0x00000000000306b8                __librt_closedir_r
                0x00000000000306d0                __librt_telldir_r
                0x00000000000306e8                __librt_rewinddir_r
                0x0000000000030700                __librt_seekdir_r
 .opd           0x0000000000030718       0x18 /usr/local/ps3dev/libpsl1ght/ppu/lib/librt.a(mkdir.o)
                0x0000000000030718                __librt_mkdir_r
 .opd           0x0000000000030730       0x18 /usr/local/ps3dev/libpsl1ght/ppu/lib/librt.a(times.o)
                0x0000000000030730                __librt_times_r
 .opd           0x0000000000030748       0x18 /usr/local/ps3dev/libpsl1ght/ppu/lib/librt.a(umask.o)
                0x0000000000030748                __librt_umask_r
 .opd           0x0000000000030760       0x48 /usr/local/ps3dev/libpsl1ght/ppu/lib/librt.a(lv2errno.o)
                0x0000000000030760                lv2error
                0x0000000000030778                lv2errno
                0x0000000000030790                lv2errno_r
 .opd           0x00000000000307a8       0x60 /usr/local/ps3dev/libpsl1ght/ppu/lib/librt.a(heap.o)
                0x00000000000307a8                heapInit
                0x00000000000307c0                heapAllocate
                0x00000000000307d8                heapAllocateAligned
                0x00000000000307f0                heapFree
 .opd           0x0000000000030808       0x18 /usr/local/ps3dev/libpsl1ght/ppu/lib/librt.a(chmod.o)
                0x0000000000030808                __librt_chmod_r
 .opd           0x0000000000030820       0x18 /usr/local/ps3dev/libpsl1ght/ppu/lib/librt.a(rmdir.o)
                0x0000000000030820                __librt_rmdir_r
 .opd           0x0000000000030838       0x18 /usr/local/ps3dev/libpsl1ght/ppu/lib/librt.a(isatty.o)
                0x0000000000030838                __librt_isatty_r
 .opd           0x0000000000030850       0x18 /usr/local/ps3dev/libpsl1ght/ppu/lib/librt.a(gettod.o)
                0x0000000000030850                __librt_gettod_r
 .opd           0x0000000000030868       0x18 /usr/local/ps3dev/libpsl1ght/ppu/lib/librt.a(settod.o)
                0x0000000000030868                __librt_settod_r
 .opd           0x0000000000030880      0xb28 /usr/local/ps3dev/libpsl1ght/ppu/lib/liblv2.a(sprx.o)
                0x0000000000030880                sysGetSystemTime
                0x0000000000030898                sysGetSystemSwVersion
                0x00000000000308b0                sysGetTemperature
                0x00000000000308c8                sysGetRandomNumber
                0x00000000000308e0                sysGetRtcStatus
                0x00000000000308f8                sysBoardStorageRead
                0x0000000000030910                sysBoardStorageWrite
                0x0000000000030928                sysProcessIsStack
                0x0000000000030940                sysProcessExit
                0x0000000000030958                sysProcessExitspawn
                0x0000000000030970                sysProcessExitSpawn2Ex
                0x0000000000030988                sysProcessExitSpawnWithLevel
                0x00000000000309a0                sysProcessAtExitSpawn
                0x00000000000309b8                sysProcess_At_ExitSpawn
                0x00000000000309d0                sysPrxRegisterLibrary
                0x00000000000309e8                sysPrxUnregisterLibrary
                0x0000000000030a00                sysPrxStartModule
                0x0000000000030a18                sysPrxStopModule
                0x0000000000030a30                sysPrxLoadModule
                0x0000000000030a48                sysPrxLoadModuleByFd
                0x0000000000030a60                sysPrxLoadModuleList
                0x0000000000030a78                sysPrxLoadModuleListOnMemcontainer
                0x0000000000030a90                sysPrxLoadModuleOnMemcontainer
                0x0000000000030aa8                sysPrxLoadModuleOnMemcontainerByFd
                0x0000000000030ac0                sysPrxGetModuleInfo
                0x0000000000030ad8                sysPrxGetModuleList
                0x0000000000030af0                sysPrxGetModuleId
                0x0000000000030b08                sysPrxGetModuleIdByAddress
                0x0000000000030b20                sysPrxGetModuleIdByName
                0x0000000000030b38                sysPrxUnloadModule
                0x0000000000030b50                sysPrxExitSpawnWithLevel
                0x0000000000030b68                sysThreadCreateEx
                0x0000000000030b80                sysThreadExit
                0x0000000000030b98                sysThreadGetId
                0x0000000000030bb0                sysThreadOnce
                0x0000000000030bc8                sysThreadInitialzeTLS
                0x0000000000030be0                sysThreadRegisterAtexit
                0x0000000000030bf8                sysThreadUnregisterAtexit
                0x0000000000030c10                sysInterruptThreadDisestablish
                0x0000000000030c28                sysLwMutexCreate
                0x0000000000030c40                sysLwMutexDestroy
                0x0000000000030c58                sysLwMutexLock
                0x0000000000030c70                sysLwMutexTryLock
                0x0000000000030c88                sysLwMutexUnlock
                0x0000000000030ca0                sysLwCondCreate
                0x0000000000030cb8                sysLwCondWait
                0x0000000000030cd0                sysLwCondSignal
                0x0000000000030ce8                sysLwCondSignalTo
                0x0000000000030d00                sysLwCondSignalAll
                0x0000000000030d18                sysLwCondDestroy
                0x0000000000030d30                sysSpinlockInitialize
                0x0000000000030d48                sysSpinlockLock
                0x0000000000030d60                sysSpinlockTryLock
                0x0000000000030d78                sysSpinlockUnlock
                0x0000000000030d90                sysWatchdogClear
                0x0000000000030da8                sysWatchdogStart
                0x0000000000030dc0                sysWatchdogStop
                0x0000000000030dd8                sysMalloc
                0x0000000000030df0                sysMemalign
                0x0000000000030e08                sysMemchr
                0x0000000000030e20                sysMemcmp
                0x0000000000030e38                sysMemcpy
                0x0000000000030e50                sysMemmove
                0x0000000000030e68                sysMemset
                0x0000000000030e80                sysFree
                0x0000000000030e98                sysHeapAllocHeapMemory
                0x0000000000030eb0                sysHeapCreateHeap
                0x0000000000030ec8                sysHeapDeleteHeap
                0x0000000000030ee0                sysHeapFree
                0x0000000000030ef8                sysHeapGetMallInfo
                0x0000000000030f10                sysHeapGetTotalFreeSize
                0x0000000000030f28                sysHeapMalloc
                0x0000000000030f40                sysHeapMemalign
                0x0000000000030f58                sysHeapStats
                0x0000000000030f70                sysQsort
                0x0000000000030f88                sysMempoolCreate
                0x0000000000030fa0                sysMempoolDestroy
                0x0000000000030fb8                sysMempoolGetCount
                0x0000000000030fd0                sysMempoolAllocateBlock
                0x0000000000030fe8                sysMempoolTryAllocateBlock
                0x0000000000031000                sysMempoolFreeBlock
                0x0000000000031018                sysMMapperFreeMemory
                0x0000000000031030                sysMMapperMapMemory
                0x0000000000031048                sysMMapperUnmapMemory
                0x0000000000031060                sysMMapperAllocateMemory
                0x0000000000031078                sysMMapperAllocateMemoryFromContainer
                0x0000000000031090                sysStrlen
                0x00000000000310a8                sysStrcpy
                0x00000000000310c0                sysStrncpy
                0x00000000000310d8                sysStrcat
                0x00000000000310f0                sysStrncat
                0x0000000000031108                sysStrchr
                0x0000000000031120                sysStrrchr
                0x0000000000031138                sysStrcmp
                0x0000000000031150                sysStrncmp
                0x0000000000031168                sysStrncasecmp
                0x0000000000031180                sysToLower
                0x0000000000031198                sysToUpper
                0x00000000000311b0                sysSpuElfGetSegments
                0x00000000000311c8                sysSpuElfGetInformation
                0x00000000000311e0                sysSpuRawLoad
                0x00000000000311f8                sysSpuRawImageLoad
                0x0000000000031210                sysSpuImageClose
                0x0000000000031228                sysSpuImageImport
                0x0000000000031240                sysSpuPrintfAttachGroup
                0x0000000000031258                sysSpuPrintfAttachThread
                0x0000000000031270                sysSpuPrintfDetachGroup
                0x0000000000031288                sysSpuPrintfDetach_Tread
                0x00000000000312a0                sysSpuPrintfFinalize
                0x00000000000312b8                sysSpuPrintfInitialize
                0x00000000000312d0                sysConsoleGetc
                0x00000000000312e8                sysConsolePutc
                0x0000000000031300                sysConsoleWrite
                0x0000000000031318                sysPrintf
                0x0000000000031330                sysSprintf
                0x0000000000031348                sysSnprintf
                0x0000000000031360                sysVprintf
                0x0000000000031378                sysVsprintf
                0x0000000000031390                sysVsnprintf
 .opd           0x00000000000313a8       0x18 /usr/local/ps3dev/ppu/lib/gcc/powerpc64-ps3-elf/4.7.0/../../../../powerpc64-ps3-elf/lib/libc.a(lib_a-errno.o)
                0x00000000000313a8                __errno
 .opd           0x00000000000313c0       0x18 /usr/local/ps3dev/ppu/lib/gcc/powerpc64-ps3-elf/4.7.0/../../../../powerpc64-ps3-elf/lib/libc.a(lib_a-exit.o)
                0x00000000000313c0                exit
 .opd           0x00000000000313d8       0x18 /usr/local/ps3dev/ppu/lib/gcc/powerpc64-ps3-elf/4.7.0/../../../../powerpc64-ps3-elf/lib/libc.a(lib_a-getreent.o)
                0x00000000000313d8                __getreent
 .opd           0x00000000000313f0       0x30 /usr/local/ps3dev/ppu/lib/gcc/powerpc64-ps3-elf/4.7.0/../../../../powerpc64-ps3-elf/lib/libc.a(lib_a-malloc.o)
                0x00000000000313f0                malloc
                0x0000000000031408                free
 .opd           0x0000000000031420       0x18 /usr/local/ps3dev/ppu/lib/gcc/powerpc64-ps3-elf/4.7.0/../../../../powerpc64-ps3-elf/lib/libc.a(lib_a-mallocr.o)
                0x0000000000031420                _malloc_r
 .opd           0x0000000000031438       0x18 /usr/local/ps3dev/ppu/lib/gcc/powerpc64-ps3-elf/4.7.0/../../../../powerpc64-ps3-elf/lib/libc.a(lib_a-memset.o)
                0x0000000000031438                memset
 .opd           0x0000000000031450       0x30 /usr/local/ps3dev/ppu/lib/gcc/powerpc64-ps3-elf/4.7.0/../../../../powerpc64-ps3-elf/lib/libc.a(lib_a-mlock.o)
                0x0000000000031450                __malloc_lock
                0x0000000000031468                __malloc_unlock
 .opd           0x0000000000031480       0x30 /usr/local/ps3dev/ppu/lib/gcc/powerpc64-ps3-elf/4.7.0/../../../../powerpc64-ps3-elf/lib/libc.a(lib_a-sscanf.o)
                0x0000000000031480                sscanf
                0x0000000000031498                _sscanf_r
 .opd           0x00000000000314b0       0x78 /usr/local/ps3dev/ppu/lib/gcc/powerpc64-ps3-elf/4.7.0/../../../../powerpc64-ps3-elf/lib/libc.a(lib_a-stdio.o)
                0x00000000000314b0                __sread
                0x00000000000314c8                __seofread
                0x00000000000314e0                __swrite
                0x00000000000314f8                __sseek
                0x0000000000031510                __sclose
 .opd           0x0000000000031528       0x18 /usr/local/ps3dev/ppu/lib/gcc/powerpc64-ps3-elf/4.7.0/../../../../powerpc64-ps3-elf/lib/libc.a(lib_a-strlen.o)
                0x0000000000031528                strlen
 .opd           0x0000000000031540       0x18 /usr/local/ps3dev/ppu/lib/gcc/powerpc64-ps3-elf/4.7.0/../../../../powerpc64-ps3-elf/lib/libc.a(lib_a-strncpy.o)
                0x0000000000031540                strncpy
 .opd           0x0000000000031558       0x18 /usr/local/ps3dev/ppu/lib/gcc/powerpc64-ps3-elf/4.7.0/../../../../powerpc64-ps3-elf/lib/libc.a(lib_a-svfscanf.o)
                0x0000000000031558                __ssvfscanf_r
 .opd           0x0000000000031570       0x18 /usr/local/ps3dev/ppu/lib/gcc/powerpc64-ps3-elf/4.7.0/../../../../powerpc64-ps3-elf/lib/libc.a(lib_a-__call_atexit.o)
                0x0000000000031570                __call_exitprocs
 .opd           0x0000000000031588       0x30 /usr/local/ps3dev/ppu/lib/gcc/powerpc64-ps3-elf/4.7.0/../../../../powerpc64-ps3-elf/lib/libc.a(lib_a-freer.o)
                0x0000000000031588                _malloc_trim_r
                0x00000000000315a0                _free_r
 .opd           0x00000000000315b8       0x18 /usr/local/ps3dev/ppu/lib/gcc/powerpc64-ps3-elf/4.7.0/../../../../powerpc64-ps3-elf/lib/libc.a(lib_a-iswspace.o)
                0x00000000000315b8                iswspace
 .opd           0x00000000000315d0       0xc0 /usr/local/ps3dev/ppu/lib/gcc/powerpc64-ps3-elf/4.7.0/../../../../powerpc64-ps3-elf/lib/libc.a(lib_a-locale.o)
                0x00000000000315d0                _setlocale_r
                0x00000000000315e8                __locale_charset
                0x0000000000031600                __locale_mb_cur_max
                0x0000000000031618                __locale_msgcharset
                0x0000000000031630                __locale_cjk_lang
                0x0000000000031648                _localeconv_r
                0x0000000000031660                setlocale
                0x0000000000031678                localeconv
 .opd           0x0000000000031690       0x78 /usr/local/ps3dev/ppu/lib/gcc/powerpc64-ps3-elf/4.7.0/../../../../powerpc64-ps3-elf/lib/libc.a(lib_a-lock_recursive.o)
                0x0000000000031690                __libc_lock_init_recursive
                0x00000000000316a8                __libc_lock_close_recursive
                0x00000000000316c0                __libc_lock_acquire_recursive
                0x00000000000316d8                __libc_lock_try_acquire_recursive
                0x00000000000316f0                __libc_lock_release_recursive
 .opd           0x0000000000031708       0x30 /usr/local/ps3dev/ppu/lib/gcc/powerpc64-ps3-elf/4.7.0/../../../../powerpc64-ps3-elf/lib/libc.a(lib_a-mbrtowc.o)
                0x0000000000031708                _mbrtowc_r
                0x0000000000031720                mbrtowc
 .opd           0x0000000000031738       0x30 /usr/local/ps3dev/ppu/lib/gcc/powerpc64-ps3-elf/4.7.0/../../../../powerpc64-ps3-elf/lib/libc.a(lib_a-mbtowc_r.o)
                0x0000000000031738                __ascii_mbtowc
                0x0000000000031750                _mbtowc_r
 .opd           0x0000000000031768       0x18 /usr/local/ps3dev/ppu/lib/gcc/powerpc64-ps3-elf/4.7.0/../../../../powerpc64-ps3-elf/lib/libc.a(lib_a-sccl.o)
                0x0000000000031768                __sccl
 .opd           0x0000000000031780       0x18 /usr/local/ps3dev/ppu/lib/gcc/powerpc64-ps3-elf/4.7.0/../../../../powerpc64-ps3-elf/lib/libc.a(lib_a-sf_nan.o)
                0x0000000000031780                nanf
 .opd           0x0000000000031798       0x18 /usr/local/ps3dev/ppu/lib/gcc/powerpc64-ps3-elf/4.7.0/../../../../powerpc64-ps3-elf/lib/libc.a(lib_a-s_fpclassify.o)
                0x0000000000031798                __fpclassifyd
 .opd           0x00000000000317b0       0x30 /usr/local/ps3dev/ppu/lib/gcc/powerpc64-ps3-elf/4.7.0/../../../../powerpc64-ps3-elf/lib/libc.a(lib_a-sprintf.o)
                0x00000000000317b0                _sprintf_r
                0x00000000000317c8                sprintf
 .opd           0x00000000000317e0       0x18 /usr/local/ps3dev/ppu/lib/gcc/powerpc64-ps3-elf/4.7.0/../../../../powerpc64-ps3-elf/lib/libc.a(lib_a-strcmp.o)
                0x00000000000317e0                strcmp
 .opd           0x00000000000317f8       0x48 /usr/local/ps3dev/ppu/lib/gcc/powerpc64-ps3-elf/4.7.0/../../../../powerpc64-ps3-elf/lib/libc.a(lib_a-strtod.o)
                0x00000000000317f8                _strtod_r
                0x0000000000031810                strtod
                0x0000000000031828                strtof
 .opd           0x0000000000031840       0x18 /usr/local/ps3dev/ppu/lib/gcc/powerpc64-ps3-elf/4.7.0/../../../../powerpc64-ps3-elf/lib/libc.a(lib_a-strtoll_r.o)
                0x0000000000031840                _strtoll_r
 .opd           0x0000000000031858       0x30 /usr/local/ps3dev/ppu/lib/gcc/powerpc64-ps3-elf/4.7.0/../../../../powerpc64-ps3-elf/lib/libc.a(lib_a-strtol.o)
                0x0000000000031858                _strtol_r
                0x0000000000031870                strtol
 .opd           0x0000000000031888       0x18 /usr/local/ps3dev/ppu/lib/gcc/powerpc64-ps3-elf/4.7.0/../../../../powerpc64-ps3-elf/lib/libc.a(lib_a-strtoull_r.o)
                0x0000000000031888                _strtoull_r
 .opd           0x00000000000318a0       0x30 /usr/local/ps3dev/ppu/lib/gcc/powerpc64-ps3-elf/4.7.0/../../../../powerpc64-ps3-elf/lib/libc.a(lib_a-strtoul.o)
                0x00000000000318a0                _strtoul_r
                0x00000000000318b8                strtoul
 .opd           0x00000000000318d0       0x60 /usr/local/ps3dev/ppu/lib/gcc/powerpc64-ps3-elf/4.7.0/../../../../powerpc64-ps3-elf/lib/libc.a(lib_a-svfiscanf.o)
                0x00000000000318d0                _sungetc_r
                0x00000000000318e8                __ssrefill_r
                0x0000000000031900                _sfread_r
                0x0000000000031918                __ssvfiscanf_r
 .opd           0x0000000000031930       0x18 /usr/local/ps3dev/ppu/lib/gcc/powerpc64-ps3-elf/4.7.0/../../../../powerpc64-ps3-elf/lib/libc.a(lib_a-svfprintf.o)
                0x0000000000031930                _svfprintf_r
 .opd           0x0000000000031948       0x48 /usr/local/ps3dev/ppu/lib/gcc/powerpc64-ps3-elf/4.7.0/../../../../powerpc64-ps3-elf/lib/libc.a(lib_a-ungetc.o)
                0x0000000000031948                __submore
                0x0000000000031960                _ungetc_r
                0x0000000000031978                ungetc
 .opd           0x0000000000031990       0x18 /usr/local/ps3dev/ppu/lib/gcc/powerpc64-ps3-elf/4.7.0/../../../../powerpc64-ps3-elf/lib/libc.a(lib_a-__atexit.o)
                0x0000000000031990                __register_exitproc
 .opd           0x00000000000319a8       0x30 /usr/local/ps3dev/ppu/lib/gcc/powerpc64-ps3-elf/4.7.0/../../../../powerpc64-ps3-elf/lib/libc.a(lib_a-dtoa.o)
                0x00000000000319c0                _dtoa_r
 .opd           0x00000000000319d8       0x48 /usr/local/ps3dev/ppu/lib/gcc/powerpc64-ps3-elf/4.7.0/../../../../powerpc64-ps3-elf/lib/libc.a(lib_a-fflush.o)
                0x00000000000319d8                __sflush_r
                0x00000000000319f0                _fflush_r
                0x0000000000031a08                fflush
 .opd           0x0000000000031a20      0x150 /usr/local/ps3dev/ppu/lib/gcc/powerpc64-ps3-elf/4.7.0/../../../../powerpc64-ps3-elf/lib/libc.a(lib_a-findfp.o)
                0x0000000000031a20                _cleanup_r
                0x0000000000031a80                __sfmoreglue
                0x0000000000031a98                _cleanup
                0x0000000000031ab0                __sfp_lock_acquire
                0x0000000000031ac8                __sfp_lock_release
                0x0000000000031ae0                __sinit_lock_acquire
                0x0000000000031af8                __sinit_lock_release
                0x0000000000031b10                __sinit
                0x0000000000031b28                __sfp
                0x0000000000031b40                __fp_lock_all
                0x0000000000031b58                __fp_unlock_all
 .opd           0x0000000000031b70       0x30 /usr/local/ps3dev/ppu/lib/gcc/powerpc64-ps3-elf/4.7.0/../../../../powerpc64-ps3-elf/lib/libc.a(lib_a-fwalk.o)
                0x0000000000031b70                _fwalk
                0x0000000000031b88                _fwalk_reent
 .opd           0x0000000000031ba0       0x48 /usr/local/ps3dev/ppu/lib/gcc/powerpc64-ps3-elf/4.7.0/../../../../powerpc64-ps3-elf/lib/libc.a(lib_a-gdtoa-gethex.o)
                0x0000000000031bb8                __hexdig_init
                0x0000000000031bd0                __gethex
 .opd           0x0000000000031be8       0x18 /usr/local/ps3dev/ppu/lib/gcc/powerpc64-ps3-elf/4.7.0/../../../../powerpc64-ps3-elf/lib/libc.a(lib_a-gdtoa-hexnan.o)
                0x0000000000031be8                __hexnan
 .opd           0x0000000000031c00       0x30 /usr/local/ps3dev/ppu/lib/gcc/powerpc64-ps3-elf/4.7.0/../../../../powerpc64-ps3-elf/lib/libc.a(lib_a-lock_internal.o)
                0x0000000000031c18                __libc_auto_lock_allocate
 .opd           0x0000000000031c30       0x18 /usr/local/ps3dev/ppu/lib/gcc/powerpc64-ps3-elf/4.7.0/../../../../powerpc64-ps3-elf/lib/libc.a(lib_a-memchr.o)
                0x0000000000031c30                memchr
 .opd           0x0000000000031c48       0x18 /usr/local/ps3dev/ppu/lib/gcc/powerpc64-ps3-elf/4.7.0/../../../../powerpc64-ps3-elf/lib/libc.a(lib_a-memcpy.o)
                0x0000000000031c48                memcpy
 .opd           0x0000000000031c60      0x1c8 /usr/local/ps3dev/ppu/lib/gcc/powerpc64-ps3-elf/4.7.0/../../../../powerpc64-ps3-elf/lib/libc.a(lib_a-mprec.o)
                0x0000000000031c60                _Balloc
                0x0000000000031c78                _Bfree
                0x0000000000031c90                __multadd
                0x0000000000031ca8                __s2b
                0x0000000000031cc0                __hi0bits
                0x0000000000031cd8                __lo0bits
                0x0000000000031cf0                __i2b
                0x0000000000031d08                __multiply
                0x0000000000031d20                __pow5mult
                0x0000000000031d38                __lshift
                0x0000000000031d50                __mcmp
                0x0000000000031d68                __mdiff
                0x0000000000031d80                __ulp
                0x0000000000031d98                __b2d
                0x0000000000031db0                __d2b
                0x0000000000031dc8                __ratio
                0x0000000000031de0                _mprec_log10
                0x0000000000031df8                __copybits
                0x0000000000031e10                __any_on
 .opd           0x0000000000031e28       0x18 /usr/local/ps3dev/ppu/lib/gcc/powerpc64-ps3-elf/4.7.0/../../../../powerpc64-ps3-elf/lib/libc.a(lib_a-reallocr.o)
                0x0000000000031e28                _realloc_r
 .opd           0x0000000000031e40       0x18 /usr/local/ps3dev/ppu/lib/gcc/powerpc64-ps3-elf/4.7.0/../../../../powerpc64-ps3-elf/lib/libc.a(lib_a-strncmp.o)
                0x0000000000031e40                strncmp
 .opd           0x0000000000031e58       0x30 /usr/local/ps3dev/ppu/lib/gcc/powerpc64-ps3-elf/4.7.0/../../../../powerpc64-ps3-elf/lib/libc.a(lib_a-svfiprintf.o)
                0x0000000000031e58                __ssprint_r
                0x0000000000031e70                _svfiprintf_r
 .opd           0x0000000000031e88       0x18 /usr/local/ps3dev/ppu/lib/gcc/powerpc64-ps3-elf/4.7.0/../../../../powerpc64-ps3-elf/lib/libc.a(lib_a-abort.o)
                0x0000000000031e88                abort
 .opd           0x0000000000031ea0       0x18 /usr/local/ps3dev/ppu/lib/gcc/powerpc64-ps3-elf/4.7.0/../../../../powerpc64-ps3-elf/lib/libc.a(lib_a-callocr.o)
                0x0000000000031ea0                _calloc_r
 .opd           0x0000000000031eb8       0x30 /usr/local/ps3dev/ppu/lib/gcc/powerpc64-ps3-elf/4.7.0/../../../../powerpc64-ps3-elf/lib/libc.a(lib_a-fclose.o)
                0x0000000000031eb8                _fclose_r
                0x0000000000031ed0                fclose
 .opd           0x0000000000031ee8       0x18 /usr/local/ps3dev/ppu/lib/gcc/powerpc64-ps3-elf/4.7.0/../../../../powerpc64-ps3-elf/lib/libc.a(lib_a-memmove.o)
                0x0000000000031ee8                memmove
 .opd           0x0000000000031f00       0xc0 /usr/local/ps3dev/ppu/lib/gcc/powerpc64-ps3-elf/4.7.0/../../../../powerpc64-ps3-elf/lib/libc.a(lib_a-signal.o)
                0x0000000000031f00                _init_signal_r
                0x0000000000031f18                _signal_r
                0x0000000000031f30                _raise_r
                0x0000000000031f48                __sigtramp_r
                0x0000000000031f60                raise
                0x0000000000031f78                signal
                0x0000000000031f90                _init_signal
                0x0000000000031fa8                __sigtramp
 .opd           0x0000000000031fc0       0x18 /usr/local/ps3dev/ppu/lib/gcc/powerpc64-ps3-elf/4.7.0/../../../../powerpc64-ps3-elf/lib/libsysbase.a(close.o)
                0x0000000000031fc0                _close_r
 .opd           0x0000000000031fd8       0x18 /usr/local/ps3dev/ppu/lib/gcc/powerpc64-ps3-elf/4.7.0/../../../../powerpc64-ps3-elf/lib/libsysbase.a(sbrk.o)
                0x0000000000031fd8                _sbrk_r
 .opd           0x0000000000031ff0       0x18 /usr/local/ps3dev/ppu/lib/gcc/powerpc64-ps3-elf/4.7.0/../../../../powerpc64-ps3-elf/lib/libsysbase.a(_exit.o)
                0x0000000000031ff0                _exit
 .opd           0x0000000000032008       0x18 /usr/local/ps3dev/ppu/lib/gcc/powerpc64-ps3-elf/4.7.0/../../../../powerpc64-ps3-elf/lib/libsysbase.a(lseek.o)
                0x0000000000032008                _lseek_r
 .opd           0x0000000000032020       0x18 /usr/local/ps3dev/ppu/lib/gcc/powerpc64-ps3-elf/4.7.0/../../../../powerpc64-ps3-elf/lib/libsysbase.a(read.o)
                0x0000000000032020                _read_r
 .opd           0x0000000000032038       0x18 /usr/local/ps3dev/ppu/lib/gcc/powerpc64-ps3-elf/4.7.0/../../../../powerpc64-ps3-elf/lib/libsysbase.a(write.o)
                0x0000000000032038                _write_r
 .opd           0x0000000000032050       0x78 /usr/local/ps3dev/ppu/lib/gcc/powerpc64-ps3-elf/4.7.0/../../../../powerpc64-ps3-elf/lib/libsysbase.a(lock.o)
                0x0000000000032050                sys_lwmutex_create
                0x0000000000032068                sys_lwmutex_destroy
                0x0000000000032080                sys_lwmutex_lock
                0x0000000000032098                sys_lwmutex_trylock
                0x00000000000320b0                sys_lwmutex_unlock
 .opd           0x00000000000320c8       0x18 /usr/local/ps3dev/ppu/lib/gcc/powerpc64-ps3-elf/4.7.0/../../../../powerpc64-ps3-elf/lib/libsysbase.a(getpid.o)
                0x00000000000320c8                _getpid_r
 .opd           0x00000000000320e0       0x18 /usr/local/ps3dev/ppu/lib/gcc/powerpc64-ps3-elf/4.7.0/../../../../powerpc64-ps3-elf/lib/libsysbase.a(kill.o)
                0x00000000000320e0                _kill_r
 .opd           0x00000000000320f8       0x18 /usr/local/ps3dev/ppu/lib/gcc/powerpc64-ps3-elf/4.7.0/crtend.o

.branch_lt      0x0000000000032110        0x0
 *(.branch_lt)
 .branch_lt     0x0000000000032110        0x0 linker stubs

.got            0x0000000000032110      0x648
 *(.got .toc)
 .toc           0x0000000000032110       0x70 /usr/local/ps3dev/ppu/lib/gcc/powerpc64-ps3-elf/4.7.0/crtbegin.o
 .toc           0x0000000000032180       0x28 /usr/local/ps3dev/libpsl1ght/ppu/lib/librt.a(sbrk.o)
 .toc           0x00000000000321a8        0x8 /usr/local/ps3dev/ppu/lib/gcc/powerpc64-ps3-elf/4.7.0/crtend.o
 .toc           0x00000000000321b0      0x118 /usr/local/ps3dev/ppu/lib/gcc/powerpc64-ps3-elf/4.7.0/../../../../powerpc64-ps3-elf/lib/lv2-crt0.o
 .toc           0x00000000000322c8        0x8 /usr/local/ps3dev/libpsl1ght/ppu/lib/librt.a(open.o)
 .toc           0x00000000000322d0        0x8 /usr/local/ps3dev/libpsl1ght/ppu/lib/librt.a(socket.o)
 .toc           0x00000000000322d8        0x8 /usr/local/ps3dev/libpsl1ght/ppu/lib/librt.a(mkdir.o)
 .toc           0x00000000000322e0        0x8 /usr/local/ps3dev/libpsl1ght/ppu/lib/librt.a(umask.o)
 .toc           0x00000000000322e8        0x8 /usr/local/ps3dev/ppu/lib/gcc/powerpc64-ps3-elf/4.7.0/../../../../powerpc64-ps3-elf/lib/libc.a(lib_a-exit.o)
 .toc           0x00000000000322f0        0x8 /usr/local/ps3dev/ppu/lib/gcc/powerpc64-ps3-elf/4.7.0/../../../../powerpc64-ps3-elf/lib/libc.a(lib_a-getreent.o)
 .toc           0x00000000000322f8       0x30 /usr/local/ps3dev/ppu/lib/gcc/powerpc64-ps3-elf/4.7.0/../../../../powerpc64-ps3-elf/lib/libc.a(lib_a-mallocr.o)
 .toc           0x0000000000032328        0x8 /usr/local/ps3dev/ppu/lib/gcc/powerpc64-ps3-elf/4.7.0/../../../../powerpc64-ps3-elf/lib/libc.a(lib_a-mlock.o)
 .toc           0x0000000000032330        0x8 /usr/local/ps3dev/ppu/lib/gcc/powerpc64-ps3-elf/4.7.0/../../../../powerpc64-ps3-elf/lib/libc.a(lib_a-sscanf.o)
 .toc           0x0000000000032338       0x40 /usr/local/ps3dev/ppu/lib/gcc/powerpc64-ps3-elf/4.7.0/../../../../powerpc64-ps3-elf/lib/libc.a(lib_a-svfscanf.o)
 .toc           0x0000000000032378       0x18 /usr/local/ps3dev/ppu/lib/gcc/powerpc64-ps3-elf/4.7.0/../../../../powerpc64-ps3-elf/lib/libc.a(lib_a-__call_atexit.o)
 .toc           0x0000000000032390       0x30 /usr/local/ps3dev/ppu/lib/gcc/powerpc64-ps3-elf/4.7.0/../../../../powerpc64-ps3-elf/lib/libc.a(lib_a-freer.o)
 .toc           0x00000000000323c0        0x8 /usr/local/ps3dev/ppu/lib/gcc/powerpc64-ps3-elf/4.7.0/../../../../powerpc64-ps3-elf/lib/libc.a(lib_a-iswspace.o)
 .toc           0x00000000000323c8       0x38 /usr/local/ps3dev/ppu/lib/gcc/powerpc64-ps3-elf/4.7.0/../../../../powerpc64-ps3-elf/lib/libc.a(lib_a-locale.o)
 .toc           0x0000000000032400        0x8 /usr/local/ps3dev/ppu/lib/gcc/powerpc64-ps3-elf/4.7.0/../../../../powerpc64-ps3-elf/lib/libc.a(lib_a-lock_recursive.o)
 .toc           0x0000000000032408       0x10 /usr/local/ps3dev/ppu/lib/gcc/powerpc64-ps3-elf/4.7.0/../../../../powerpc64-ps3-elf/lib/libc.a(lib_a-mbrtowc.o)
 .toc           0x0000000000032418        0x8 /usr/local/ps3dev/ppu/lib/gcc/powerpc64-ps3-elf/4.7.0/../../../../powerpc64-ps3-elf/lib/libc.a(lib_a-mbtowc_r.o)
 .toc           0x0000000000032420        0x8 /usr/local/ps3dev/ppu/lib/gcc/powerpc64-ps3-elf/4.7.0/../../../../powerpc64-ps3-elf/lib/libc.a(lib_a-sf_nan.o)
 .toc           0x0000000000032428       0xb0 /usr/local/ps3dev/ppu/lib/gcc/powerpc64-ps3-elf/4.7.0/../../../../powerpc64-ps3-elf/lib/libc.a(lib_a-strtod.o)
 .toc           0x00000000000324d8        0x8 /usr/local/ps3dev/ppu/lib/gcc/powerpc64-ps3-elf/4.7.0/../../../../powerpc64-ps3-elf/lib/libc.a(lib_a-strtoll_r.o)
 .toc           0x00000000000324e0        0x8 /usr/local/ps3dev/ppu/lib/gcc/powerpc64-ps3-elf/4.7.0/../../../../powerpc64-ps3-elf/lib/libc.a(lib_a-strtol.o)
 .toc           0x00000000000324e8        0x8 /usr/local/ps3dev/ppu/lib/gcc/powerpc64-ps3-elf/4.7.0/../../../../powerpc64-ps3-elf/lib/libc.a(lib_a-strtoull_r.o)
 .toc           0x00000000000324f0        0x8 /usr/local/ps3dev/ppu/lib/gcc/powerpc64-ps3-elf/4.7.0/../../../../powerpc64-ps3-elf/lib/libc.a(lib_a-strtoul.o)
 .toc           0x00000000000324f8       0x30 /usr/local/ps3dev/ppu/lib/gcc/powerpc64-ps3-elf/4.7.0/../../../../powerpc64-ps3-elf/lib/libc.a(lib_a-svfiscanf.o)
 .toc           0x0000000000032528       0x60 /usr/local/ps3dev/ppu/lib/gcc/powerpc64-ps3-elf/4.7.0/../../../../powerpc64-ps3-elf/lib/libc.a(lib_a-svfprintf.o)
 .toc           0x0000000000032588       0x18 /usr/local/ps3dev/ppu/lib/gcc/powerpc64-ps3-elf/4.7.0/../../../../powerpc64-ps3-elf/lib/libc.a(lib_a-__atexit.o)
 .toc           0x00000000000325a0       0x80 /usr/local/ps3dev/ppu/lib/gcc/powerpc64-ps3-elf/4.7.0/../../../../powerpc64-ps3-elf/lib/libc.a(lib_a-dtoa.o)
 .toc           0x0000000000032620       0x10 /usr/local/ps3dev/ppu/lib/gcc/powerpc64-ps3-elf/4.7.0/../../../../powerpc64-ps3-elf/lib/libc.a(lib_a-fflush.o)
 .toc           0x0000000000032630       0x58 /usr/local/ps3dev/ppu/lib/gcc/powerpc64-ps3-elf/4.7.0/../../../../powerpc64-ps3-elf/lib/libc.a(lib_a-findfp.o)
 .toc           0x0000000000032688       0x20 /usr/local/ps3dev/ppu/lib/gcc/powerpc64-ps3-elf/4.7.0/../../../../powerpc64-ps3-elf/lib/libc.a(lib_a-gdtoa-gethex.o)
 .toc           0x00000000000326a8        0x8 /usr/local/ps3dev/ppu/lib/gcc/powerpc64-ps3-elf/4.7.0/../../../../powerpc64-ps3-elf/lib/libc.a(lib_a-gdtoa-hexnan.o)
 .toc           0x00000000000326b0       0x10 /usr/local/ps3dev/ppu/lib/gcc/powerpc64-ps3-elf/4.7.0/../../../../powerpc64-ps3-elf/lib/libc.a(lib_a-lock_internal.o)
 .toc           0x00000000000326c0       0x20 /usr/local/ps3dev/ppu/lib/gcc/powerpc64-ps3-elf/4.7.0/../../../../powerpc64-ps3-elf/lib/libc.a(lib_a-mprec.o)
 .toc           0x00000000000326e0        0x8 /usr/local/ps3dev/ppu/lib/gcc/powerpc64-ps3-elf/4.7.0/../../../../powerpc64-ps3-elf/lib/libc.a(lib_a-reallocr.o)
 .toc           0x00000000000326e8       0x30 /usr/local/ps3dev/ppu/lib/gcc/powerpc64-ps3-elf/4.7.0/../../../../powerpc64-ps3-elf/lib/libc.a(lib_a-svfiprintf.o)
 .toc           0x0000000000032718        0x8 /usr/local/ps3dev/ppu/lib/gcc/powerpc64-ps3-elf/4.7.0/../../../../powerpc64-ps3-elf/lib/libsysbase.a(close.o)
 .toc           0x0000000000032720        0x8 /usr/local/ps3dev/ppu/lib/gcc/powerpc64-ps3-elf/4.7.0/../../../../powerpc64-ps3-elf/lib/libsysbase.a(sbrk.o)
 .toc           0x0000000000032728        0x8 /usr/local/ps3dev/ppu/lib/gcc/powerpc64-ps3-elf/4.7.0/../../../../powerpc64-ps3-elf/lib/libsysbase.a(_exit.o)
 .toc           0x0000000000032730        0x8 /usr/local/ps3dev/ppu/lib/gcc/powerpc64-ps3-elf/4.7.0/../../../../powerpc64-ps3-elf/lib/libsysbase.a(lseek.o)
 .toc           0x0000000000032738        0x8 /usr/local/ps3dev/ppu/lib/gcc/powerpc64-ps3-elf/4.7.0/../../../../powerpc64-ps3-elf/lib/libsysbase.a(read.o)
 .toc           0x0000000000032740        0x8 /usr/local/ps3dev/ppu/lib/gcc/powerpc64-ps3-elf/4.7.0/../../../../powerpc64-ps3-elf/lib/libsysbase.a(write.o)
 .toc           0x0000000000032748        0x8 /usr/local/ps3dev/ppu/lib/gcc/powerpc64-ps3-elf/4.7.0/../../../../powerpc64-ps3-elf/lib/libsysbase.a(lock.o)
 .toc           0x0000000000032750        0x8 /usr/local/ps3dev/ppu/lib/gcc/powerpc64-ps3-elf/4.7.0/../../../../powerpc64-ps3-elf/lib/libsysbase.a(getpid.o)
 .toc           0x0000000000032758        0x0 /usr/local/ps3dev/libpsl1ght/ppu/lib/librt.a(exit.o)
 .toc           0x0000000000032758        0x0 /usr/local/ps3dev/libpsl1ght/ppu/lib/librt.a(close.o)
 .toc           0x0000000000032758        0x0 /usr/local/ps3dev/libpsl1ght/ppu/lib/librt.a(lseek.o)
 .toc           0x0000000000032758        0x0 /usr/local/ps3dev/libpsl1ght/ppu/lib/librt.a(read.o)
 .toc           0x0000000000032758        0x0 /usr/local/ps3dev/libpsl1ght/ppu/lib/librt.a(sleep.o)
 .toc           0x0000000000032758        0x0 /usr/local/ps3dev/libpsl1ght/ppu/lib/librt.a(write.o)
 .toc           0x0000000000032758        0x0 /usr/local/ps3dev/libpsl1ght/ppu/lib/librt.a(fstat.o)
 .toc           0x0000000000032758        0x0 /usr/local/ps3dev/libpsl1ght/ppu/lib/librt.a(lock.o)
 .toc           0x0000000000032758        0x0 /usr/local/ps3dev/libpsl1ght/ppu/lib/librt.a(dirent.o)
 .toc           0x0000000000032758        0x0 /usr/local/ps3dev/libpsl1ght/ppu/lib/librt.a(times.o)
 .toc           0x0000000000032758        0x0 /usr/local/ps3dev/libpsl1ght/ppu/lib/librt.a(lv2errno.o)
 .toc           0x0000000000032758        0x0 /usr/local/ps3dev/libpsl1ght/ppu/lib/librt.a(heap.o)
 .toc           0x0000000000032758        0x0 /usr/local/ps3dev/libpsl1ght/ppu/lib/librt.a(chmod.o)
 .toc           0x0000000000032758        0x0 /usr/local/ps3dev/libpsl1ght/ppu/lib/librt.a(rmdir.o)
 .toc           0x0000000000032758        0x0 /usr/local/ps3dev/libpsl1ght/ppu/lib/librt.a(isatty.o)
 .toc           0x0000000000032758        0x0 /usr/local/ps3dev/libpsl1ght/ppu/lib/librt.a(gettod.o)
 .toc           0x0000000000032758        0x0 /usr/local/ps3dev/libpsl1ght/ppu/lib/librt.a(settod.o)
 .got           0x0000000000032758        0x0 /usr/local/ps3dev/libpsl1ght/ppu/lib/liblv2.a(sprx.o)
 .toc           0x0000000000032758        0x0 /usr/local/ps3dev/ppu/lib/gcc/powerpc64-ps3-elf/4.7.0/../../../../powerpc64-ps3-elf/lib/libsysbase.a(syscalls.o)
 .toc           0x0000000000032758        0x0 /usr/local/ps3dev/ppu/lib/gcc/powerpc64-ps3-elf/4.7.0/../../../../powerpc64-ps3-elf/lib/libc.a(lib_a-errno.o)
 .toc           0x0000000000032758        0x0 /usr/local/ps3dev/ppu/lib/gcc/powerpc64-ps3-elf/4.7.0/../../../../powerpc64-ps3-elf/lib/libc.a(lib_a-impure.o)
 .toc           0x0000000000032758        0x0 /usr/local/ps3dev/ppu/lib/gcc/powerpc64-ps3-elf/4.7.0/../../../../powerpc64-ps3-elf/lib/libc.a(lib_a-malloc.o)
 .toc           0x0000000000032758        0x0 /usr/local/ps3dev/ppu/lib/gcc/powerpc64-ps3-elf/4.7.0/../../../../powerpc64-ps3-elf/lib/libc.a(lib_a-memset.o)
 .toc           0x0000000000032758        0x0 /usr/local/ps3dev/ppu/lib/gcc/powerpc64-ps3-elf/4.7.0/../../../../powerpc64-ps3-elf/lib/libc.a(lib_a-stdio.o)
 .toc           0x0000000000032758        0x0 /usr/local/ps3dev/ppu/lib/gcc/powerpc64-ps3-elf/4.7.0/../../../../powerpc64-ps3-elf/lib/libc.a(lib_a-strlen.o)
 .toc           0x0000000000032758        0x0 /usr/local/ps3dev/ppu/lib/gcc/powerpc64-ps3-elf/4.7.0/../../../../powerpc64-ps3-elf/lib/libc.a(lib_a-strncpy.o)
 .toc           0x0000000000032758        0x0 /usr/local/ps3dev/ppu/lib/gcc/powerpc64-ps3-elf/4.7.0/../../../../powerpc64-ps3-elf/lib/libc.a(lib_a-ctype_.o)
 .toc           0x0000000000032758        0x0 /usr/local/ps3dev/ppu/lib/gcc/powerpc64-ps3-elf/4.7.0/../../../../powerpc64-ps3-elf/lib/libc.a(lib_a-sccl.o)
 .toc           0x0000000000032758        0x0 /usr/local/ps3dev/ppu/lib/gcc/powerpc64-ps3-elf/4.7.0/../../../../powerpc64-ps3-elf/lib/libc.a(lib_a-s_fpclassify.o)
 .toc           0x0000000000032758        0x0 /usr/local/ps3dev/ppu/lib/gcc/powerpc64-ps3-elf/4.7.0/../../../../powerpc64-ps3-elf/lib/libc.a(lib_a-sprintf.o)
 .toc           0x0000000000032758        0x0 /usr/local/ps3dev/ppu/lib/gcc/powerpc64-ps3-elf/4.7.0/../../../../powerpc64-ps3-elf/lib/libc.a(lib_a-strcmp.o)
 .toc           0x0000000000032758        0x0 /usr/local/ps3dev/ppu/lib/gcc/powerpc64-ps3-elf/4.7.0/../../../../powerpc64-ps3-elf/lib/libc.a(lib_a-ungetc.o)
 .toc           0x0000000000032758        0x0 /usr/local/ps3dev/ppu/lib/gcc/powerpc64-ps3-elf/4.7.0/../../../../powerpc64-ps3-elf/lib/libc.a(lib_a-fwalk.o)
 .toc           0x0000000000032758        0x0 /usr/local/ps3dev/ppu/lib/gcc/powerpc64-ps3-elf/4.7.0/../../../../powerpc64-ps3-elf/lib/libc.a(lib_a-memchr.o)
 .toc           0x0000000000032758        0x0 /usr/local/ps3dev/ppu/lib/gcc/powerpc64-ps3-elf/4.7.0/../../../../powerpc64-ps3-elf/lib/libc.a(lib_a-memcpy.o)
 .toc           0x0000000000032758        0x0 /usr/local/ps3dev/ppu/lib/gcc/powerpc64-ps3-elf/4.7.0/../../../../powerpc64-ps3-elf/lib/libc.a(lib_a-strncmp.o)
 .toc           0x0000000000032758        0x0 /usr/local/ps3dev/ppu/lib/gcc/powerpc64-ps3-elf/4.7.0/../../../../powerpc64-ps3-elf/lib/libc.a(lib_a-abort.o)
 .toc           0x0000000000032758        0x0 /usr/local/ps3dev/ppu/lib/gcc/powerpc64-ps3-elf/4.7.0/../../../../powerpc64-ps3-elf/lib/libc.a(lib_a-callocr.o)
 .toc           0x0000000000032758        0x0 /usr/local/ps3dev/ppu/lib/gcc/powerpc64-ps3-elf/4.7.0/../../../../powerpc64-ps3-elf/lib/libc.a(lib_a-fclose.o)
 .toc           0x0000000000032758        0x0 /usr/local/ps3dev/ppu/lib/gcc/powerpc64-ps3-elf/4.7.0/../../../../powerpc64-ps3-elf/lib/libc.a(lib_a-memmove.o)
 .toc           0x0000000000032758        0x0 /usr/local/ps3dev/ppu/lib/gcc/powerpc64-ps3-elf/4.7.0/../../../../powerpc64-ps3-elf/lib/libc.a(lib_a-signal.o)
 .toc           0x0000000000032758        0x0 /usr/local/ps3dev/ppu/lib/gcc/powerpc64-ps3-elf/4.7.0/../../../../powerpc64-ps3-elf/lib/libsysbase.a(kill.o)

.toc.sceStub
 *(.toc.sceStub)
 *(SORT(.toc.sceStub.*))

.tdata
 *(.tdata .tdata.* .gnu.linkonce.td.*)

.tbss           0x0000000000032758      0x780
 *(.tbss .tbss.* .gnu.linkonce.tb.*)
 .tbss.t_reent  0x0000000000032758      0x778 /usr/local/ps3dev/ppu/lib/gcc/powerpc64-ps3-elf/4.7.0/../../../../powerpc64-ps3-elf/lib/libc.a(lib_a-getreent.o)
 .tbss.t_reentp
                0x0000000000032ed0        0x8 /usr/local/ps3dev/ppu/lib/gcc/powerpc64-ps3-elf/4.7.0/../../../../powerpc64-ps3-elf/lib/libc.a(lib_a-getreent.o)
 *(.tcommon)
                0x0000000010000000                . = ALIGN (0x10000000)

.rodata         0x0000000010000000      0x468
 *(.rodata .rodata.* .gnu.linkonce.r.*)
 .rodata        0x0000000010000000       0x18 /usr/local/ps3dev/ppu/lib/gcc/powerpc64-ps3-elf/4.7.0/../../../../powerpc64-ps3-elf/lib/lv2-crt0.o
                0x0000000010000000                _start
 .rodata.str1.8
                0x0000000010000018        0xc /usr/local/ps3dev/libpsl1ght/ppu/lib/librt.a(socket.o)
 *fill*         0x0000000010000024        0x4 00
 .rodata.str1.8
                0x0000000010000028        0x2 /usr/local/ps3dev/ppu/lib/gcc/powerpc64-ps3-elf/4.7.0/../../../../powerpc64-ps3-elf/lib/libc.a(lib_a-getreent.o)
 .rodata.str1.8
                0x0000000000000000        0x2 /usr/local/ps3dev/ppu/lib/gcc/powerpc64-ps3-elf/4.7.0/../../../../powerpc64-ps3-elf/lib/libc.a(lib_a-impure.o)
 *fill*         0x000000001000002a        0x6 00
 .rodata._global_impure_ptr
                0x0000000010000030        0x8 /usr/local/ps3dev/ppu/lib/gcc/powerpc64-ps3-elf/4.7.0/../../../../powerpc64-ps3-elf/lib/libc.a(lib_a-impure.o)
                0x0000000010000030                _global_impure_ptr
 .rodata.str1.8
                0x0000000010000038        0x5 /usr/local/ps3dev/ppu/lib/gcc/powerpc64-ps3-elf/4.7.0/../../../../powerpc64-ps3-elf/lib/libc.a(lib_a-svfscanf.o)
 *fill*         0x000000001000003d        0x1 00
 .rodata.basefix.4642
                0x000000001000003e       0x22 /usr/local/ps3dev/ppu/lib/gcc/powerpc64-ps3-elf/4.7.0/../../../../powerpc64-ps3-elf/lib/libc.a(lib_a-svfscanf.o)
 .rodata._ctype_
                0x0000000010000060      0x101 /usr/local/ps3dev/ppu/lib/gcc/powerpc64-ps3-elf/4.7.0/../../../../powerpc64-ps3-elf/lib/libc.a(lib_a-ctype_.o)
                0x0000000010000060                _ctype_
 *fill*         0x0000000010000161        0x7 00
 .rodata.str1.8
                0x0000000010000168        0xa /usr/local/ps3dev/ppu/lib/gcc/powerpc64-ps3-elf/4.7.0/../../../../powerpc64-ps3-elf/lib/libc.a(lib_a-locale.o)
                                         0x1a (size before relaxing)
 *fill*         0x0000000010000172        0x2 00
 .rodata.__libc_lock_attributes
                0x0000000010000174       0x10 /usr/local/ps3dev/ppu/lib/gcc/powerpc64-ps3-elf/4.7.0/../../../../powerpc64-ps3-elf/lib/libc.a(lib_a-lock_recursive.o)
 .rodata.str1.8
                0x0000000000000000        0x1 /usr/local/ps3dev/ppu/lib/gcc/powerpc64-ps3-elf/4.7.0/../../../../powerpc64-ps3-elf/lib/libc.a(lib_a-mbrtowc.o)
 .rodata.cst4   0x0000000010000184        0x4 /usr/local/ps3dev/ppu/lib/gcc/powerpc64-ps3-elf/4.7.0/../../../../powerpc64-ps3-elf/lib/libc.a(lib_a-sf_nan.o)
 .rodata.cst4   0x0000000010000188       0x14 /usr/local/ps3dev/ppu/lib/gcc/powerpc64-ps3-elf/4.7.0/../../../../powerpc64-ps3-elf/lib/libc.a(lib_a-strtod.o)
 *fill*         0x000000001000019c        0x4 00
 .rodata.cst8   0x00000000100001a0       0x28 /usr/local/ps3dev/ppu/lib/gcc/powerpc64-ps3-elf/4.7.0/../../../../powerpc64-ps3-elf/lib/libc.a(lib_a-strtod.o)
 .rodata.str1.8
                0x00000000100001c8       0x13 /usr/local/ps3dev/ppu/lib/gcc/powerpc64-ps3-elf/4.7.0/../../../../powerpc64-ps3-elf/lib/libc.a(lib_a-strtod.o)
 *fill*         0x00000000100001db        0x5 00
 .rodata.tinytens
                0x00000000100001e0       0x28 /usr/local/ps3dev/ppu/lib/gcc/powerpc64-ps3-elf/4.7.0/../../../../powerpc64-ps3-elf/lib/libc.a(lib_a-strtod.o)
 .rodata.basefix.4142
                0x0000000010000208       0x22 /usr/local/ps3dev/ppu/lib/gcc/powerpc64-ps3-elf/4.7.0/../../../../powerpc64-ps3-elf/lib/libc.a(lib_a-svfiscanf.o)
 *fill*         0x000000001000022a        0x6 00
 .rodata.blanks.4726
                0x0000000010000230       0x10 /usr/local/ps3dev/ppu/lib/gcc/powerpc64-ps3-elf/4.7.0/../../../../powerpc64-ps3-elf/lib/libc.a(lib_a-svfprintf.o)
 .rodata.cst8   0x0000000000000000        0x8 /usr/local/ps3dev/ppu/lib/gcc/powerpc64-ps3-elf/4.7.0/../../../../powerpc64-ps3-elf/lib/libc.a(lib_a-svfprintf.o)
 .rodata.str1.8
                0x0000000010000240       0x5a /usr/local/ps3dev/ppu/lib/gcc/powerpc64-ps3-elf/4.7.0/../../../../powerpc64-ps3-elf/lib/libc.a(lib_a-svfprintf.o)
 *fill*         0x000000001000029a        0x6 00
 .rodata.zeroes.4727
                0x00000000100002a0       0x10 /usr/local/ps3dev/ppu/lib/gcc/powerpc64-ps3-elf/4.7.0/../../../../powerpc64-ps3-elf/lib/libc.a(lib_a-svfprintf.o)
 .rodata.cst4   0x00000000100002b0       0x10 /usr/local/ps3dev/ppu/lib/gcc/powerpc64-ps3-elf/4.7.0/../../../../powerpc64-ps3-elf/lib/libc.a(lib_a-dtoa.o)
                                         0x18 (size before relaxing)
 .rodata.cst8   0x00000000100002c0       0x18 /usr/local/ps3dev/ppu/lib/gcc/powerpc64-ps3-elf/4.7.0/../../../../powerpc64-ps3-elf/lib/libc.a(lib_a-dtoa.o)
                                         0x20 (size before relaxing)
 .rodata.str1.8
                0x00000000100002d8       0x14 /usr/local/ps3dev/ppu/lib/gcc/powerpc64-ps3-elf/4.7.0/../../../../powerpc64-ps3-elf/lib/libc.a(lib_a-dtoa.o)
                                         0x1a (size before relaxing)
 *fill*         0x00000000100002ec        0x4 00
 .rodata.str1.8
                0x00000000100002f0       0x20 /usr/local/ps3dev/ppu/lib/gcc/powerpc64-ps3-elf/4.7.0/../../../../powerpc64-ps3-elf/lib/libc.a(lib_a-gdtoa-gethex.o)
                                         0x1b (size before relaxing)
 .rodata.__libc_lock_attributes
                0x0000000010000310       0x10 /usr/local/ps3dev/ppu/lib/gcc/powerpc64-ps3-elf/4.7.0/../../../../powerpc64-ps3-elf/lib/libc.a(lib_a-lock_internal.o)
 .rodata.cst4   0x0000000000000000        0x8 /usr/local/ps3dev/ppu/lib/gcc/powerpc64-ps3-elf/4.7.0/../../../../powerpc64-ps3-elf/lib/libc.a(lib_a-mprec.o)
 .rodata.__mprec_tens
                0x0000000010000320       0xc8 /usr/local/ps3dev/ppu/lib/gcc/powerpc64-ps3-elf/4.7.0/../../../../powerpc64-ps3-elf/lib/libc.a(lib_a-mprec.o)
                0x0000000010000320                __mprec_tens
 .rodata.__mprec_bigtens
                0x00000000100003e8       0x28 /usr/local/ps3dev/ppu/lib/gcc/powerpc64-ps3-elf/4.7.0/../../../../powerpc64-ps3-elf/lib/libc.a(lib_a-mprec.o)
                0x00000000100003e8                __mprec_bigtens
 .rodata.p05.3267
                0x0000000010000410        0xc /usr/local/ps3dev/ppu/lib/gcc/powerpc64-ps3-elf/4.7.0/../../../../powerpc64-ps3-elf/lib/libc.a(lib_a-mprec.o)
 *fill*         0x000000001000041c        0x4 00
 .rodata.__mprec_tinytens
                0x0000000010000420       0x28 /usr/local/ps3dev/ppu/lib/gcc/powerpc64-ps3-elf/4.7.0/../../../../powerpc64-ps3-elf/lib/libc.a(lib_a-mprec.o)
                0x0000000010000420                __mprec_tinytens
 .rodata.zeroes.4671
                0x0000000010000448       0x10 /usr/local/ps3dev/ppu/lib/gcc/powerpc64-ps3-elf/4.7.0/../../../../powerpc64-ps3-elf/lib/libc.a(lib_a-svfiprintf.o)
 .rodata.str1.8
                0x0000000000000000       0x37 /usr/local/ps3dev/ppu/lib/gcc/powerpc64-ps3-elf/4.7.0/../../../../powerpc64-ps3-elf/lib/libc.a(lib_a-svfiprintf.o)
 .rodata.blanks.4670
                0x0000000010000458       0x10 /usr/local/ps3dev/ppu/lib/gcc/powerpc64-ps3-elf/4.7.0/../../../../powerpc64-ps3-elf/lib/libc.a(lib_a-svfiprintf.o)

.rodata1
 *(.rodata1)

.spu_image
 *(.spu_image .spu_image.*)
                0x0000000010010000                . = ALIGN (0x10000)

.data           0x0000000010010000     0x1090
 *(.data .data.* .gnu.linkonce.d.*)
 .data          0x0000000010010000        0x0 /usr/local/ps3dev/ppu/lib/gcc/powerpc64-ps3-elf/4.7.0/../../../../powerpc64-ps3-elf/lib/lv2-crti.o
 .data          0x0000000010010000        0x0 /usr/local/ps3dev/ppu/lib/gcc/powerpc64-ps3-elf/4.7.0/crtbegin.o
 .data.__dso_handle
                0x0000000010010000        0x8 /usr/local/ps3dev/ppu/lib/gcc/powerpc64-ps3-elf/4.7.0/crtbegin.o
                0x0000000010010000                __dso_handle
 .data          0x0000000010010008        0x0 /usr/local/ps3dev/ppu/lib/gcc/powerpc64-ps3-elf/4.7.0/../../../../powerpc64-ps3-elf/lib/lv2-crt0.o
 .data          0x0000000010010008        0x0 /usr/local/ps3dev/ppu/lib/gcc/powerpc64-ps3-elf/4.7.0/../../../../powerpc64-ps3-elf/lib/lv2-sprx.o
 .data          0x0000000010010008        0x0 /usr/local/ps3dev/libpsl1ght/ppu/lib/librt.a(sbrk.o)
 .data          0x0000000010010008        0x0 /usr/local/ps3dev/libpsl1ght/ppu/lib/librt.a(exit.o)
 .data          0x0000000010010008        0x0 /usr/local/ps3dev/libpsl1ght/ppu/lib/librt.a(close.o)
 .data          0x0000000010010008        0x0 /usr/local/ps3dev/libpsl1ght/ppu/lib/librt.a(lseek.o)
 .data          0x0000000010010008        0x0 /usr/local/ps3dev/libpsl1ght/ppu/lib/librt.a(read.o)
 .data          0x0000000010010008        0x0 /usr/local/ps3dev/libpsl1ght/ppu/lib/librt.a(open.o)
 .data          0x0000000010010008        0x0 /usr/local/ps3dev/libpsl1ght/ppu/lib/librt.a(sleep.o)
 .data          0x0000000010010008        0x0 /usr/local/ps3dev/libpsl1ght/ppu/lib/librt.a(write.o)
 .data          0x0000000010010008        0x0 /usr/local/ps3dev/libpsl1ght/ppu/lib/librt.a(fstat.o)
 .data          0x0000000010010008        0x0 /usr/local/ps3dev/libpsl1ght/ppu/lib/librt.a(socket.o)
 .data          0x0000000010010008        0x0 /usr/local/ps3dev/libpsl1ght/ppu/lib/librt.a(lock.o)
 .data          0x0000000010010008        0x0 /usr/local/ps3dev/libpsl1ght/ppu/lib/librt.a(dirent.o)
 .data          0x0000000010010008        0x0 /usr/local/ps3dev/libpsl1ght/ppu/lib/librt.a(mkdir.o)
 .data          0x0000000010010008        0x0 /usr/local/ps3dev/libpsl1ght/ppu/lib/librt.a(times.o)
 .data          0x0000000010010008        0x0 /usr/local/ps3dev/libpsl1ght/ppu/lib/librt.a(umask.o)
 .data.g_umask  0x0000000010010008        0x4 /usr/local/ps3dev/libpsl1ght/ppu/lib/librt.a(umask.o)
                0x0000000010010008                g_umask
 .data          0x000000001001000c        0x0 /usr/local/ps3dev/libpsl1ght/ppu/lib/librt.a(lv2errno.o)
 .data          0x000000001001000c        0x0 /usr/local/ps3dev/libpsl1ght/ppu/lib/librt.a(heap.o)
 .data          0x000000001001000c        0x0 /usr/local/ps3dev/libpsl1ght/ppu/lib/librt.a(chmod.o)
 .data          0x000000001001000c        0x0 /usr/local/ps3dev/libpsl1ght/ppu/lib/librt.a(rmdir.o)
 .data          0x000000001001000c        0x0 /usr/local/ps3dev/libpsl1ght/ppu/lib/librt.a(isatty.o)
 .data          0x000000001001000c        0x0 /usr/local/ps3dev/libpsl1ght/ppu/lib/librt.a(gettod.o)
 .data          0x000000001001000c        0x0 /usr/local/ps3dev/libpsl1ght/ppu/lib/librt.a(settod.o)
 .data          0x000000001001000c        0x0 /usr/local/ps3dev/libpsl1ght/ppu/lib/liblv2.a(sprx.o)
 .data          0x000000001001000c        0x0 /usr/local/ps3dev/ppu/lib/gcc/powerpc64-ps3-elf/4.7.0/../../../../powerpc64-ps3-elf/lib/libsysbase.a(syscalls.o)
 .data          0x000000001001000c        0x0 /usr/local/ps3dev/ppu/lib/gcc/powerpc64-ps3-elf/4.7.0/../../../../powerpc64-ps3-elf/lib/libc.a(lib_a-errno.o)
 .data          0x000000001001000c        0x0 /usr/local/ps3dev/ppu/lib/gcc/powerpc64-ps3-elf/4.7.0/../../../../powerpc64-ps3-elf/lib/libc.a(lib_a-exit.o)
 .data          0x000000001001000c        0x0 /usr/local/ps3dev/ppu/lib/gcc/powerpc64-ps3-elf/4.7.0/../../../../powerpc64-ps3-elf/lib/libc.a(lib_a-getreent.o)
 .data          0x000000001001000c        0x0 /usr/local/ps3dev/ppu/lib/gcc/powerpc64-ps3-elf/4.7.0/../../../../powerpc64-ps3-elf/lib/libc.a(lib_a-impure.o)
 *fill*         0x000000001001000c        0x4 00
 .data.impure_data
                0x0000000010010010      0x778 /usr/local/ps3dev/ppu/lib/gcc/powerpc64-ps3-elf/4.7.0/../../../../powerpc64-ps3-elf/lib/libc.a(lib_a-impure.o)
 .data._impure_ptr
                0x0000000010010788        0x8 /usr/local/ps3dev/ppu/lib/gcc/powerpc64-ps3-elf/4.7.0/../../../../powerpc64-ps3-elf/lib/libc.a(lib_a-impure.o)
                0x0000000010010788                _impure_ptr
 .data          0x0000000010010790        0x0 /usr/local/ps3dev/ppu/lib/gcc/powerpc64-ps3-elf/4.7.0/../../../../powerpc64-ps3-elf/lib/libc.a(lib_a-malloc.o)
 .data          0x0000000010010790        0x0 /usr/local/ps3dev/ppu/lib/gcc/powerpc64-ps3-elf/4.7.0/../../../../powerpc64-ps3-elf/lib/libc.a(lib_a-mallocr.o)
 .data.rel.__malloc_av_
                0x0000000010010790      0x810 /usr/local/ps3dev/ppu/lib/gcc/powerpc64-ps3-elf/4.7.0/../../../../powerpc64-ps3-elf/lib/libc.a(lib_a-mallocr.o)
                0x0000000010010790                __malloc_av_
 .data.__malloc_trim_threshold
                0x0000000010010fa0        0x8 /usr/local/ps3dev/ppu/lib/gcc/powerpc64-ps3-elf/4.7.0/../../../../powerpc64-ps3-elf/lib/libc.a(lib_a-mallocr.o)
                0x0000000010010fa0                __malloc_trim_threshold
 .data.__malloc_sbrk_base
                0x0000000010010fa8        0x8 /usr/local/ps3dev/ppu/lib/gcc/powerpc64-ps3-elf/4.7.0/../../../../powerpc64-ps3-elf/lib/libc.a(lib_a-mallocr.o)
                0x0000000010010fa8                __malloc_sbrk_base
 .data          0x0000000010010fb0        0x0 /usr/local/ps3dev/ppu/lib/gcc/powerpc64-ps3-elf/4.7.0/../../../../powerpc64-ps3-elf/lib/libc.a(lib_a-memset.o)
 .data          0x0000000010010fb0        0x0 /usr/local/ps3dev/ppu/lib/gcc/powerpc64-ps3-elf/4.7.0/../../../../powerpc64-ps3-elf/lib/libc.a(lib_a-mlock.o)
 .data          0x0000000010010fb0        0x0 /usr/local/ps3dev/ppu/lib/gcc/powerpc64-ps3-elf/4.7.0/../../../../powerpc64-ps3-elf/lib/libc.a(lib_a-sscanf.o)
 .data          0x0000000010010fb0        0x0 /usr/local/ps3dev/ppu/lib/gcc/powerpc64-ps3-elf/4.7.0/../../../../powerpc64-ps3-elf/lib/libc.a(lib_a-stdio.o)
 .data          0x0000000010010fb0        0x0 /usr/local/ps3dev/ppu/lib/gcc/powerpc64-ps3-elf/4.7.0/../../../../powerpc64-ps3-elf/lib/libc.a(lib_a-strlen.o)
 .data          0x0000000010010fb0        0x0 /usr/local/ps3dev/ppu/lib/gcc/powerpc64-ps3-elf/4.7.0/../../../../powerpc64-ps3-elf/lib/libc.a(lib_a-strncpy.o)
 .data          0x0000000010010fb0        0x0 /usr/local/ps3dev/ppu/lib/gcc/powerpc64-ps3-elf/4.7.0/../../../../powerpc64-ps3-elf/lib/libc.a(lib_a-svfscanf.o)
 .data          0x0000000010010fb0        0x0 /usr/local/ps3dev/ppu/lib/gcc/powerpc64-ps3-elf/4.7.0/../../../../powerpc64-ps3-elf/lib/libc.a(lib_a-__call_atexit.o)
 .data          0x0000000010010fb0        0x0 /usr/local/ps3dev/ppu/lib/gcc/powerpc64-ps3-elf/4.7.0/../../../../powerpc64-ps3-elf/lib/libc.a(lib_a-ctype_.o)
 .data.rel.__ctype_ptr__
                0x0000000010010fb0        0x8 /usr/local/ps3dev/ppu/lib/gcc/powerpc64-ps3-elf/4.7.0/../../../../powerpc64-ps3-elf/lib/libc.a(lib_a-ctype_.o)
                0x0000000010010fb0                __ctype_ptr__
 .data          0x0000000010010fb8        0x0 /usr/local/ps3dev/ppu/lib/gcc/powerpc64-ps3-elf/4.7.0/../../../../powerpc64-ps3-elf/lib/libc.a(lib_a-freer.o)
 .data          0x0000000010010fb8        0x0 /usr/local/ps3dev/ppu/lib/gcc/powerpc64-ps3-elf/4.7.0/../../../../powerpc64-ps3-elf/lib/libc.a(lib_a-iswspace.o)
 .data          0x0000000010010fb8        0x0 /usr/local/ps3dev/ppu/lib/gcc/powerpc64-ps3-elf/4.7.0/../../../../powerpc64-ps3-elf/lib/libc.a(lib_a-locale.o)
 .data.lc_message_charset
                0x0000000010010fb8       0x20 /usr/local/ps3dev/ppu/lib/gcc/powerpc64-ps3-elf/4.7.0/../../../../powerpc64-ps3-elf/lib/libc.a(lib_a-locale.o)
 .data.lconv    0x0000000010010fd8       0x60 /usr/local/ps3dev/ppu/lib/gcc/powerpc64-ps3-elf/4.7.0/../../../../powerpc64-ps3-elf/lib/libc.a(lib_a-locale.o)
 .data.lc_ctype_charset
                0x0000000010011038       0x20 /usr/local/ps3dev/ppu/lib/gcc/powerpc64-ps3-elf/4.7.0/../../../../powerpc64-ps3-elf/lib/libc.a(lib_a-locale.o)
 .data.__mb_cur_max
                0x0000000010011058        0x4 /usr/local/ps3dev/ppu/lib/gcc/powerpc64-ps3-elf/4.7.0/../../../../powerpc64-ps3-elf/lib/libc.a(lib_a-locale.o)
                0x0000000010011058                __mb_cur_max
 .data          0x000000001001105c        0x0 /usr/local/ps3dev/ppu/lib/gcc/powerpc64-ps3-elf/4.7.0/../../../../powerpc64-ps3-elf/lib/libc.a(lib_a-lock_recursive.o)
 .data          0x000000001001105c        0x0 /usr/local/ps3dev/ppu/lib/gcc/powerpc64-ps3-elf/4.7.0/../../../../powerpc64-ps3-elf/lib/libc.a(lib_a-mbrtowc.o)
 .data          0x000000001001105c        0x0 /usr/local/ps3dev/ppu/lib/gcc/powerpc64-ps3-elf/4.7.0/../../../../powerpc64-ps3-elf/lib/libc.a(lib_a-mbtowc_r.o)
 *fill*         0x000000001001105c        0x4 00
 .data.rel.__mbtowc
                0x0000000010011060        0x8 /usr/local/ps3dev/ppu/lib/gcc/powerpc64-ps3-elf/4.7.0/../../../../powerpc64-ps3-elf/lib/libc.a(lib_a-mbtowc_r.o)
                0x0000000010011060                __mbtowc
 .data          0x0000000010011068        0x0 /usr/local/ps3dev/ppu/lib/gcc/powerpc64-ps3-elf/4.7.0/../../../../powerpc64-ps3-elf/lib/libc.a(lib_a-sccl.o)
 .data          0x0000000010011068        0x0 /usr/local/ps3dev/ppu/lib/gcc/powerpc64-ps3-elf/4.7.0/../../../../powerpc64-ps3-elf/lib/libc.a(lib_a-sf_nan.o)
 .data          0x0000000010011068        0x0 /usr/local/ps3dev/ppu/lib/gcc/powerpc64-ps3-elf/4.7.0/../../../../powerpc64-ps3-elf/lib/libc.a(lib_a-s_fpclassify.o)
 .data          0x0000000010011068        0x0 /usr/local/ps3dev/ppu/lib/gcc/powerpc64-ps3-elf/4.7.0/../../../../powerpc64-ps3-elf/lib/libc.a(lib_a-sprintf.o)
 .data          0x0000000010011068        0x0 /usr/local/ps3dev/ppu/lib/gcc/powerpc64-ps3-elf/4.7.0/../../../../powerpc64-ps3-elf/lib/libc.a(lib_a-strcmp.o)
 .data          0x0000000010011068        0x0 /usr/local/ps3dev/ppu/lib/gcc/powerpc64-ps3-elf/4.7.0/../../../../powerpc64-ps3-elf/lib/libc.a(lib_a-strtod.o)
 .data.fpi.3227
                0x0000000010011068       0x14 /usr/local/ps3dev/ppu/lib/gcc/powerpc64-ps3-elf/4.7.0/../../../../powerpc64-ps3-elf/lib/libc.a(lib_a-strtod.o)
 .data.fpinan.3263
                0x000000001001107c       0x14 /usr/local/ps3dev/ppu/lib/gcc/powerpc64-ps3-elf/4.7.0/../../../../powerpc64-ps3-elf/lib/libc.a(lib_a-strtod.o)
 .data          0x0000000010011090        0x0 /usr/local/ps3dev/ppu/lib/gcc/powerpc64-ps3-elf/4.7.0/../../../../powerpc64-ps3-elf/lib/libc.a(lib_a-strtoll_r.o)
 .data          0x0000000010011090        0x0 /usr/local/ps3dev/ppu/lib/gcc/powerpc64-ps3-elf/4.7.0/../../../../powerpc64-ps3-elf/lib/libc.a(lib_a-strtol.o)
 .data          0x0000000010011090        0x0 /usr/local/ps3dev/ppu/lib/gcc/powerpc64-ps3-elf/4.7.0/../../../../powerpc64-ps3-elf/lib/libc.a(lib_a-strtoull_r.o)
 .data          0x0000000010011090        0x0 /usr/local/ps3dev/ppu/lib/gcc/powerpc64-ps3-elf/4.7.0/../../../../powerpc64-ps3-elf/lib/libc.a(lib_a-strtoul.o)
 .data          0x0000000010011090        0x0 /usr/local/ps3dev/ppu/lib/gcc/powerpc64-ps3-elf/4.7.0/../../../../powerpc64-ps3-elf/lib/libc.a(lib_a-svfiscanf.o)
 .data          0x0000000010011090        0x0 /usr/local/ps3dev/ppu/lib/gcc/powerpc64-ps3-elf/4.7.0/../../../../powerpc64-ps3-elf/lib/libc.a(lib_a-svfprintf.o)
 .data          0x0000000010011090        0x0 /usr/local/ps3dev/ppu/lib/gcc/powerpc64-ps3-elf/4.7.0/../../../../powerpc64-ps3-elf/lib/libc.a(lib_a-ungetc.o)
 .data          0x0000000010011090        0x0 /usr/local/ps3dev/ppu/lib/gcc/powerpc64-ps3-elf/4.7.0/../../../../powerpc64-ps3-elf/lib/libc.a(lib_a-__atexit.o)
 .data          0x0000000010011090        0x0 /usr/local/ps3dev/ppu/lib/gcc/powerpc64-ps3-elf/4.7.0/../../../../powerpc64-ps3-elf/lib/libc.a(lib_a-dtoa.o)
 .data          0x0000000010011090        0x0 /usr/local/ps3dev/ppu/lib/gcc/powerpc64-ps3-elf/4.7.0/../../../../powerpc64-ps3-elf/lib/libc.a(lib_a-fflush.o)
 .data          0x0000000010011090        0x0 /usr/local/ps3dev/ppu/lib/gcc/powerpc64-ps3-elf/4.7.0/../../../../powerpc64-ps3-elf/lib/libc.a(lib_a-findfp.o)
 .data          0x0000000010011090        0x0 /usr/local/ps3dev/ppu/lib/gcc/powerpc64-ps3-elf/4.7.0/../../../../powerpc64-ps3-elf/lib/libc.a(lib_a-fwalk.o)
 .data          0x0000000010011090        0x0 /usr/local/ps3dev/ppu/lib/gcc/powerpc64-ps3-elf/4.7.0/../../../../powerpc64-ps3-elf/lib/libc.a(lib_a-gdtoa-gethex.o)
 .data          0x0000000010011090        0x0 /usr/local/ps3dev/ppu/lib/gcc/powerpc64-ps3-elf/4.7.0/../../../../powerpc64-ps3-elf/lib/libc.a(lib_a-gdtoa-hexnan.o)
 .data          0x0000000010011090        0x0 /usr/local/ps3dev/ppu/lib/gcc/powerpc64-ps3-elf/4.7.0/../../../../powerpc64-ps3-elf/lib/libc.a(lib_a-lock_internal.o)
 .data          0x0000000010011090        0x0 /usr/local/ps3dev/ppu/lib/gcc/powerpc64-ps3-elf/4.7.0/../../../../powerpc64-ps3-elf/lib/libc.a(lib_a-memchr.o)
 .data          0x0000000010011090        0x0 /usr/local/ps3dev/ppu/lib/gcc/powerpc64-ps3-elf/4.7.0/../../../../powerpc64-ps3-elf/lib/libc.a(lib_a-memcpy.o)
 .data          0x0000000010011090        0x0 /usr/local/ps3dev/ppu/lib/gcc/powerpc64-ps3-elf/4.7.0/../../../../powerpc64-ps3-elf/lib/libc.a(lib_a-mprec.o)
 .data          0x0000000010011090        0x0 /usr/local/ps3dev/ppu/lib/gcc/powerpc64-ps3-elf/4.7.0/../../../../powerpc64-ps3-elf/lib/libc.a(lib_a-reallocr.o)
 .data          0x0000000010011090        0x0 /usr/local/ps3dev/ppu/lib/gcc/powerpc64-ps3-elf/4.7.0/../../../../powerpc64-ps3-elf/lib/libc.a(lib_a-strncmp.o)
 .data          0x0000000010011090        0x0 /usr/local/ps3dev/ppu/lib/gcc/powerpc64-ps3-elf/4.7.0/../../../../powerpc64-ps3-elf/lib/libc.a(lib_a-svfiprintf.o)
 .data          0x0000000010011090        0x0 /usr/local/ps3dev/ppu/lib/gcc/powerpc64-ps3-elf/4.7.0/../../../../powerpc64-ps3-elf/lib/libc.a(lib_a-abort.o)
 .data          0x0000000010011090        0x0 /usr/local/ps3dev/ppu/lib/gcc/powerpc64-ps3-elf/4.7.0/../../../../powerpc64-ps3-elf/lib/libc.a(lib_a-callocr.o)
 .data          0x0000000010011090        0x0 /usr/local/ps3dev/ppu/lib/gcc/powerpc64-ps3-elf/4.7.0/../../../../powerpc64-ps3-elf/lib/libc.a(lib_a-fclose.o)
 .data          0x0000000010011090        0x0 /usr/local/ps3dev/ppu/lib/gcc/powerpc64-ps3-elf/4.7.0/../../../../powerpc64-ps3-elf/lib/libc.a(lib_a-memmove.o)
 .data          0x0000000010011090        0x0 /usr/local/ps3dev/ppu/lib/gcc/powerpc64-ps3-elf/4.7.0/../../../../powerpc64-ps3-elf/lib/libc.a(lib_a-signal.o)
 .data          0x0000000010011090        0x0 /usr/local/ps3dev/ppu/lib/gcc/powerpc64-ps3-elf/4.7.0/../../../../powerpc64-ps3-elf/lib/libsysbase.a(close.o)
 .data          0x0000000010011090        0x0 /usr/local/ps3dev/ppu/lib/gcc/powerpc64-ps3-elf/4.7.0/../../../../powerpc64-ps3-elf/lib/libsysbase.a(sbrk.o)
 .data          0x0000000010011090        0x0 /usr/local/ps3dev/ppu/lib/gcc/powerpc64-ps3-elf/4.7.0/../../../../powerpc64-ps3-elf/lib/libsysbase.a(_exit.o)
 .data          0x0000000010011090        0x0 /usr/local/ps3dev/ppu/lib/gcc/powerpc64-ps3-elf/4.7.0/../../../../powerpc64-ps3-elf/lib/libsysbase.a(lseek.o)
 .data          0x0000000010011090        0x0 /usr/local/ps3dev/ppu/lib/gcc/powerpc64-ps3-elf/4.7.0/../../../../powerpc64-ps3-elf/lib/libsysbase.a(read.o)
 .data          0x0000000010011090        0x0 /usr/local/ps3dev/ppu/lib/gcc/powerpc64-ps3-elf/4.7.0/../../../../powerpc64-ps3-elf/lib/libsysbase.a(write.o)
 .data          0x0000000010011090        0x0 /usr/local/ps3dev/ppu/lib/gcc/powerpc64-ps3-elf/4.7.0/../../../../powerpc64-ps3-elf/lib/libsysbase.a(lock.o)
 .data          0x0000000010011090        0x0 /usr/local/ps3dev/ppu/lib/gcc/powerpc64-ps3-elf/4.7.0/../../../../powerpc64-ps3-elf/lib/libsysbase.a(getpid.o)
 .data          0x0000000010011090        0x0 /usr/local/ps3dev/ppu/lib/gcc/powerpc64-ps3-elf/4.7.0/../../../../powerpc64-ps3-elf/lib/libsysbase.a(kill.o)
 .data          0x0000000010011090        0x0 /usr/local/ps3dev/ppu/lib/gcc/powerpc64-ps3-elf/4.7.0/crtend.o
 .data          0x0000000010011090        0x0 /usr/local/ps3dev/ppu/lib/gcc/powerpc64-ps3-elf/4.7.0/../../../../powerpc64-ps3-elf/lib/lv2-crtn.o
 *(.gnu.linkonce.d.*personality*)

.tm_clone_table
                0x0000000010011090        0x0
 .tm_clone_table
                0x0000000010011090        0x0 /usr/local/ps3dev/ppu/lib/gcc/powerpc64-ps3-elf/4.7.0/crtbegin.o
 .tm_clone_table
                0x0000000010011090        0x0 /usr/local/ps3dev/ppu/lib/gcc/powerpc64-ps3-elf/4.7.0/crtend.o

.data1
 *(.data1)

.sdata
 *(.sdata .sdata.* .gnu.linkonce.s.*)
                0x0000000010011090                _edata = .
                0x0000000010011090                PROVIDE (edata, .)
                0x0000000010011090                __bss_start = .

.tocbss
 *(.tocbss)

.sbss           0x0000000010011090        0x0
                0x0000000010011090                PROVIDE (__sbss_start, .)
                0x0000000010011090                PROVIDE (___sbss_start, .)
 *(.dynsbss)
 *(.sbss .sbss.* .gnu.linkonce.sb.*)
 *(.scommon)
                0x0000000010011090                PROVIDE (__sbss_end, .)
                0x0000000010011090                PROVIDE (___sbss_end, .)

.plt
 *(.plt)

.bss            0x00000000100110c0     0x2428
 *(.dynbss)
 *(.bss .bss.* .gnu.linkonce.b.*)
 .bss           0x00000000100110c0        0x0 /usr/local/ps3dev/ppu/lib/gcc/powerpc64-ps3-elf/4.7.0/../../../../powerpc64-ps3-elf/lib/lv2-crti.o
 .bss           0x00000000100110c0        0x0 /usr/local/ps3dev/ppu/lib/gcc/powerpc64-ps3-elf/4.7.0/crtbegin.o
 .bss.completed.4578
                0x00000000100110c0        0x1 /usr/local/ps3dev/ppu/lib/gcc/powerpc64-ps3-elf/4.7.0/crtbegin.o
 *fill*         0x00000000100110c1        0x7 00
 .bss.dtor_idx.4580
                0x00000000100110c8        0x8 /usr/local/ps3dev/ppu/lib/gcc/powerpc64-ps3-elf/4.7.0/crtbegin.o
 .bss.object.4590
                0x00000000100110d0       0x30 /usr/local/ps3dev/ppu/lib/gcc/powerpc64-ps3-elf/4.7.0/crtbegin.o
 .bss           0x0000000010011100        0x8 /usr/local/ps3dev/ppu/lib/gcc/powerpc64-ps3-elf/4.7.0/../../../../powerpc64-ps3-elf/lib/lv2-crt0.o
                0x0000000010011100                __libc_stack_end
 .bss           0x0000000010011108        0x0 /usr/local/ps3dev/ppu/lib/gcc/powerpc64-ps3-elf/4.7.0/../../../../powerpc64-ps3-elf/lib/lv2-sprx.o
 .bss           0x0000000010011108        0x0 /usr/local/ps3dev/libpsl1ght/ppu/lib/librt.a(sbrk.o)
 .bss.__sbrk_baseaddr
                0x0000000010011108        0x4 /usr/local/ps3dev/libpsl1ght/ppu/lib/librt.a(sbrk.o)
 *fill*         0x000000001001110c        0x4 00
 .bss.__sbrk_curr_regionentry
                0x0000000010011110        0x8 /usr/local/ps3dev/libpsl1ght/ppu/lib/librt.a(sbrk.o)
 *fill*         0x0000000010011118       0x28 00
 .bss.__region_list_entries
                0x0000000010011140     0x2020 /usr/local/ps3dev/libpsl1ght/ppu/lib/librt.a(sbrk.o)
 .bss.__sbrk_spinlock
                0x0000000010013160        0x4 /usr/local/ps3dev/libpsl1ght/ppu/lib/librt.a(sbrk.o)
 *fill*         0x0000000010013164        0x4 00
 .bss.__region_heap
                0x0000000010013168       0x48 /usr/local/ps3dev/libpsl1ght/ppu/lib/librt.a(sbrk.o)
 .bss           0x00000000100131b0        0x0 /usr/local/ps3dev/libpsl1ght/ppu/lib/librt.a(exit.o)
 .bss           0x00000000100131b0        0x0 /usr/local/ps3dev/libpsl1ght/ppu/lib/librt.a(close.o)
 .bss           0x00000000100131b0        0x0 /usr/local/ps3dev/libpsl1ght/ppu/lib/librt.a(lseek.o)
 .bss           0x00000000100131b0        0x0 /usr/local/ps3dev/libpsl1ght/ppu/lib/librt.a(read.o)
 .bss           0x00000000100131b0        0x0 /usr/local/ps3dev/libpsl1ght/ppu/lib/librt.a(open.o)
 .bss           0x00000000100131b0        0x0 /usr/local/ps3dev/libpsl1ght/ppu/lib/librt.a(sleep.o)
 .bss           0x00000000100131b0        0x0 /usr/local/ps3dev/libpsl1ght/ppu/lib/librt.a(write.o)
 .bss           0x00000000100131b0        0x0 /usr/local/ps3dev/libpsl1ght/ppu/lib/librt.a(fstat.o)
 .bss           0x00000000100131b0        0x0 /usr/local/ps3dev/libpsl1ght/ppu/lib/librt.a(socket.o)
 .bss           0x00000000100131b0        0x0 /usr/local/ps3dev/libpsl1ght/ppu/lib/librt.a(lock.o)
 .bss           0x00000000100131b0        0x0 /usr/local/ps3dev/libpsl1ght/ppu/lib/librt.a(dirent.o)
 .bss           0x00000000100131b0        0x0 /usr/local/ps3dev/libpsl1ght/ppu/lib/librt.a(mkdir.o)
 .bss           0x00000000100131b0        0x0 /usr/local/ps3dev/libpsl1ght/ppu/lib/librt.a(times.o)
 .bss           0x00000000100131b0        0x0 /usr/local/ps3dev/libpsl1ght/ppu/lib/librt.a(umask.o)
 .bss           0x00000000100131b0        0x0 /usr/local/ps3dev/libpsl1ght/ppu/lib/librt.a(lv2errno.o)
 .bss           0x00000000100131b0        0x0 /usr/local/ps3dev/libpsl1ght/ppu/lib/librt.a(heap.o)
 .bss           0x00000000100131b0        0x0 /usr/local/ps3dev/libpsl1ght/ppu/lib/librt.a(chmod.o)
 .bss           0x00000000100131b0        0x0 /usr/local/ps3dev/libpsl1ght/ppu/lib/librt.a(rmdir.o)
 .bss           0x00000000100131b0        0x0 /usr/local/ps3dev/libpsl1ght/ppu/lib/librt.a(isatty.o)
 .bss           0x00000000100131b0        0x0 /usr/local/ps3dev/libpsl1ght/ppu/lib/librt.a(gettod.o)
 .bss           0x00000000100131b0        0x0 /usr/local/ps3dev/libpsl1ght/ppu/lib/librt.a(settod.o)
 .bss           0x00000000100131b0        0x0 /usr/local/ps3dev/libpsl1ght/ppu/lib/liblv2.a(sprx.o)
 .bss           0x00000000100131b0        0x0 /usr/local/ps3dev/ppu/lib/gcc/powerpc64-ps3-elf/4.7.0/../../../../powerpc64-ps3-elf/lib/libsysbase.a(syscalls.o)
 .bss.__syscalls
                0x00000000100131b0      0x170 /usr/local/ps3dev/ppu/lib/gcc/powerpc64-ps3-elf/4.7.0/../../../../powerpc64-ps3-elf/lib/libsysbase.a(syscalls.o)
                0x00000000100131b0                __syscalls
 .bss           0x0000000010013320        0x0 /usr/local/ps3dev/ppu/lib/gcc/powerpc64-ps3-elf/4.7.0/../../../../powerpc64-ps3-elf/lib/libc.a(lib_a-errno.o)
 .bss           0x0000000010013320        0x0 /usr/local/ps3dev/ppu/lib/gcc/powerpc64-ps3-elf/4.7.0/../../../../powerpc64-ps3-elf/lib/libc.a(lib_a-exit.o)
 .bss           0x0000000010013320        0x0 /usr/local/ps3dev/ppu/lib/gcc/powerpc64-ps3-elf/4.7.0/../../../../powerpc64-ps3-elf/lib/libc.a(lib_a-getreent.o)
 .bss           0x0000000010013320        0x0 /usr/local/ps3dev/ppu/lib/gcc/powerpc64-ps3-elf/4.7.0/../../../../powerpc64-ps3-elf/lib/libc.a(lib_a-impure.o)
 .bss           0x0000000010013320        0x0 /usr/local/ps3dev/ppu/lib/gcc/powerpc64-ps3-elf/4.7.0/../../../../powerpc64-ps3-elf/lib/libc.a(lib_a-malloc.o)
 .bss           0x0000000010013320        0x0 /usr/local/ps3dev/ppu/lib/gcc/powerpc64-ps3-elf/4.7.0/../../../../powerpc64-ps3-elf/lib/libc.a(lib_a-mallocr.o)
 .bss.__malloc_max_total_mem
                0x0000000010013320        0x8 /usr/local/ps3dev/ppu/lib/gcc/powerpc64-ps3-elf/4.7.0/../../../../powerpc64-ps3-elf/lib/libc.a(lib_a-mallocr.o)
                0x0000000010013320                __malloc_max_total_mem
 .bss.__malloc_max_sbrked_mem
                0x0000000010013328        0x8 /usr/local/ps3dev/ppu/lib/gcc/powerpc64-ps3-elf/4.7.0/../../../../powerpc64-ps3-elf/lib/libc.a(lib_a-mallocr.o)
                0x0000000010013328                __malloc_max_sbrked_mem
 .bss.__malloc_top_pad
                0x0000000010013330        0x8 /usr/local/ps3dev/ppu/lib/gcc/powerpc64-ps3-elf/4.7.0/../../../../powerpc64-ps3-elf/lib/libc.a(lib_a-mallocr.o)
                0x0000000010013330                __malloc_top_pad
 .bss.__malloc_current_mallinfo
                0x0000000010013338       0x28 /usr/local/ps3dev/ppu/lib/gcc/powerpc64-ps3-elf/4.7.0/../../../../powerpc64-ps3-elf/lib/libc.a(lib_a-mallocr.o)
                0x0000000010013338                __malloc_current_mallinfo
 .bss           0x0000000010013360        0x0 /usr/local/ps3dev/ppu/lib/gcc/powerpc64-ps3-elf/4.7.0/../../../../powerpc64-ps3-elf/lib/libc.a(lib_a-memset.o)
 .bss           0x0000000010013360        0x0 /usr/local/ps3dev/ppu/lib/gcc/powerpc64-ps3-elf/4.7.0/../../../../powerpc64-ps3-elf/lib/libc.a(lib_a-mlock.o)
 .bss.__malloc_lock_object
                0x0000000010013360       0x18 /usr/local/ps3dev/ppu/lib/gcc/powerpc64-ps3-elf/4.7.0/../../../../powerpc64-ps3-elf/lib/libc.a(lib_a-mlock.o)
 .bss           0x0000000010013378        0x0 /usr/local/ps3dev/ppu/lib/gcc/powerpc64-ps3-elf/4.7.0/../../../../powerpc64-ps3-elf/lib/libc.a(lib_a-sscanf.o)
 .bss           0x0000000010013378        0x0 /usr/local/ps3dev/ppu/lib/gcc/powerpc64-ps3-elf/4.7.0/../../../../powerpc64-ps3-elf/lib/libc.a(lib_a-stdio.o)
 .bss           0x0000000010013378        0x0 /usr/local/ps3dev/ppu/lib/gcc/powerpc64-ps3-elf/4.7.0/../../../../powerpc64-ps3-elf/lib/libc.a(lib_a-strlen.o)
 .bss           0x0000000010013378        0x0 /usr/local/ps3dev/ppu/lib/gcc/powerpc64-ps3-elf/4.7.0/../../../../powerpc64-ps3-elf/lib/libc.a(lib_a-strncpy.o)
 .bss           0x0000000010013378        0x0 /usr/local/ps3dev/ppu/lib/gcc/powerpc64-ps3-elf/4.7.0/../../../../powerpc64-ps3-elf/lib/libc.a(lib_a-svfscanf.o)
 .bss           0x0000000010013378        0x0 /usr/local/ps3dev/ppu/lib/gcc/powerpc64-ps3-elf/4.7.0/../../../../powerpc64-ps3-elf/lib/libc.a(lib_a-__call_atexit.o)
 .bss           0x0000000010013378        0x0 /usr/local/ps3dev/ppu/lib/gcc/powerpc64-ps3-elf/4.7.0/../../../../powerpc64-ps3-elf/lib/libc.a(lib_a-ctype_.o)
 .bss           0x0000000010013378        0x0 /usr/local/ps3dev/ppu/lib/gcc/powerpc64-ps3-elf/4.7.0/../../../../powerpc64-ps3-elf/lib/libc.a(lib_a-freer.o)
 .bss           0x0000000010013378        0x0 /usr/local/ps3dev/ppu/lib/gcc/powerpc64-ps3-elf/4.7.0/../../../../powerpc64-ps3-elf/lib/libc.a(lib_a-iswspace.o)
 .bss           0x0000000010013378        0x0 /usr/local/ps3dev/ppu/lib/gcc/powerpc64-ps3-elf/4.7.0/../../../../powerpc64-ps3-elf/lib/libc.a(lib_a-locale.o)
 .bss._PathLocale
                0x0000000010013378        0x8 /usr/local/ps3dev/ppu/lib/gcc/powerpc64-ps3-elf/4.7.0/../../../../powerpc64-ps3-elf/lib/libc.a(lib_a-locale.o)
                0x0000000010013378                _PathLocale
 .bss.__nlocale_changed
                0x0000000010013380        0x4 /usr/local/ps3dev/ppu/lib/gcc/powerpc64-ps3-elf/4.7.0/../../../../powerpc64-ps3-elf/lib/libc.a(lib_a-locale.o)
                0x0000000010013380                __nlocale_changed
 .bss.__mlocale_changed
                0x0000000010013384        0x4 /usr/local/ps3dev/ppu/lib/gcc/powerpc64-ps3-elf/4.7.0/../../../../powerpc64-ps3-elf/lib/libc.a(lib_a-locale.o)
                0x0000000010013384                __mlocale_changed
 .bss           0x0000000010013388        0x0 /usr/local/ps3dev/ppu/lib/gcc/powerpc64-ps3-elf/4.7.0/../../../../powerpc64-ps3-elf/lib/libc.a(lib_a-lock_recursive.o)
 .bss           0x0000000010013388        0x0 /usr/local/ps3dev/ppu/lib/gcc/powerpc64-ps3-elf/4.7.0/../../../../powerpc64-ps3-elf/lib/libc.a(lib_a-mbrtowc.o)
 .bss           0x0000000010013388        0x0 /usr/local/ps3dev/ppu/lib/gcc/powerpc64-ps3-elf/4.7.0/../../../../powerpc64-ps3-elf/lib/libc.a(lib_a-mbtowc_r.o)
 .bss           0x0000000010013388        0x0 /usr/local/ps3dev/ppu/lib/gcc/powerpc64-ps3-elf/4.7.0/../../../../powerpc64-ps3-elf/lib/libc.a(lib_a-sccl.o)
 .bss           0x0000000010013388        0x0 /usr/local/ps3dev/ppu/lib/gcc/powerpc64-ps3-elf/4.7.0/../../../../powerpc64-ps3-elf/lib/libc.a(lib_a-sf_nan.o)
 .bss           0x0000000010013388        0x0 /usr/local/ps3dev/ppu/lib/gcc/powerpc64-ps3-elf/4.7.0/../../../../powerpc64-ps3-elf/lib/libc.a(lib_a-s_fpclassify.o)
 .bss           0x0000000010013388        0x0 /usr/local/ps3dev/ppu/lib/gcc/powerpc64-ps3-elf/4.7.0/../../../../powerpc64-ps3-elf/lib/libc.a(lib_a-sprintf.o)
 .bss           0x0000000010013388        0x0 /usr/local/ps3dev/ppu/lib/gcc/powerpc64-ps3-elf/4.7.0/../../../../powerpc64-ps3-elf/lib/libc.a(lib_a-strcmp.o)
 .bss           0x0000000010013388        0x0 /usr/local/ps3dev/ppu/lib/gcc/powerpc64-ps3-elf/4.7.0/../../../../powerpc64-ps3-elf/lib/libc.a(lib_a-strtod.o)
 .bss           0x0000000010013388        0x0 /usr/local/ps3dev/ppu/lib/gcc/powerpc64-ps3-elf/4.7.0/../../../../powerpc64-ps3-elf/lib/libc.a(lib_a-strtoll_r.o)
 .bss           0x0000000010013388        0x0 /usr/local/ps3dev/ppu/lib/gcc/powerpc64-ps3-elf/4.7.0/../../../../powerpc64-ps3-elf/lib/libc.a(lib_a-strtol.o)
 .bss           0x0000000010013388        0x0 /usr/local/ps3dev/ppu/lib/gcc/powerpc64-ps3-elf/4.7.0/../../../../powerpc64-ps3-elf/lib/libc.a(lib_a-strtoull_r.o)
 .bss           0x0000000010013388        0x0 /usr/local/ps3dev/ppu/lib/gcc/powerpc64-ps3-elf/4.7.0/../../../../powerpc64-ps3-elf/lib/libc.a(lib_a-strtoul.o)
 .bss           0x0000000010013388        0x0 /usr/local/ps3dev/ppu/lib/gcc/powerpc64-ps3-elf/4.7.0/../../../../powerpc64-ps3-elf/lib/libc.a(lib_a-svfiscanf.o)
 .bss           0x0000000010013388        0x0 /usr/local/ps3dev/ppu/lib/gcc/powerpc64-ps3-elf/4.7.0/../../../../powerpc64-ps3-elf/lib/libc.a(lib_a-svfprintf.o)
 .bss           0x0000000010013388        0x0 /usr/local/ps3dev/ppu/lib/gcc/powerpc64-ps3-elf/4.7.0/../../../../powerpc64-ps3-elf/lib/libc.a(lib_a-ungetc.o)
 .bss           0x0000000010013388        0x0 /usr/local/ps3dev/ppu/lib/gcc/powerpc64-ps3-elf/4.7.0/../../../../powerpc64-ps3-elf/lib/libc.a(lib_a-__atexit.o)
 .bss.__atexit_lock
                0x0000000010013388       0x18 /usr/local/ps3dev/ppu/lib/gcc/powerpc64-ps3-elf/4.7.0/../../../../powerpc64-ps3-elf/lib/libc.a(lib_a-__atexit.o)
                0x0000000010013388                __atexit_lock
 .bss           0x00000000100133a0        0x0 /usr/local/ps3dev/ppu/lib/gcc/powerpc64-ps3-elf/4.7.0/../../../../powerpc64-ps3-elf/lib/libc.a(lib_a-dtoa.o)
 .bss           0x00000000100133a0        0x0 /usr/local/ps3dev/ppu/lib/gcc/powerpc64-ps3-elf/4.7.0/../../../../powerpc64-ps3-elf/lib/libc.a(lib_a-fflush.o)
 .bss           0x00000000100133a0        0x0 /usr/local/ps3dev/ppu/lib/gcc/powerpc64-ps3-elf/4.7.0/../../../../powerpc64-ps3-elf/lib/libc.a(lib_a-findfp.o)
 .bss.__sfp_lock
                0x00000000100133a0       0x18 /usr/local/ps3dev/ppu/lib/gcc/powerpc64-ps3-elf/4.7.0/../../../../powerpc64-ps3-elf/lib/libc.a(lib_a-findfp.o)
 .bss.__sinit_lock
                0x00000000100133b8       0x18 /usr/local/ps3dev/ppu/lib/gcc/powerpc64-ps3-elf/4.7.0/../../../../powerpc64-ps3-elf/lib/libc.a(lib_a-findfp.o)
 .bss           0x00000000100133d0        0x0 /usr/local/ps3dev/ppu/lib/gcc/powerpc64-ps3-elf/4.7.0/../../../../powerpc64-ps3-elf/lib/libc.a(lib_a-fwalk.o)
 .bss           0x00000000100133d0        0x0 /usr/local/ps3dev/ppu/lib/gcc/powerpc64-ps3-elf/4.7.0/../../../../powerpc64-ps3-elf/lib/libc.a(lib_a-gdtoa-gethex.o)
 .bss           0x00000000100133d0        0x0 /usr/local/ps3dev/ppu/lib/gcc/powerpc64-ps3-elf/4.7.0/../../../../powerpc64-ps3-elf/lib/libc.a(lib_a-gdtoa-hexnan.o)
 .bss           0x00000000100133d0        0x0 /usr/local/ps3dev/ppu/lib/gcc/powerpc64-ps3-elf/4.7.0/../../../../powerpc64-ps3-elf/lib/libc.a(lib_a-lock_internal.o)
 .bss.metaLock  0x00000000100133d0       0x18 /usr/local/ps3dev/ppu/lib/gcc/powerpc64-ps3-elf/4.7.0/../../../../powerpc64-ps3-elf/lib/libc.a(lib_a-lock_internal.o)
 .bss           0x00000000100133e8        0x0 /usr/local/ps3dev/ppu/lib/gcc/powerpc64-ps3-elf/4.7.0/../../../../powerpc64-ps3-elf/lib/libc.a(lib_a-memchr.o)
 .bss           0x00000000100133e8        0x0 /usr/local/ps3dev/ppu/lib/gcc/powerpc64-ps3-elf/4.7.0/../../../../powerpc64-ps3-elf/lib/libc.a(lib_a-memcpy.o)
 .bss           0x00000000100133e8        0x0 /usr/local/ps3dev/ppu/lib/gcc/powerpc64-ps3-elf/4.7.0/../../../../powerpc64-ps3-elf/lib/libc.a(lib_a-mprec.o)
 .bss           0x00000000100133e8        0x0 /usr/local/ps3dev/ppu/lib/gcc/powerpc64-ps3-elf/4.7.0/../../../../powerpc64-ps3-elf/lib/libc.a(lib_a-reallocr.o)
 .bss           0x00000000100133e8        0x0 /usr/local/ps3dev/ppu/lib/gcc/powerpc64-ps3-elf/4.7.0/../../../../powerpc64-ps3-elf/lib/libc.a(lib_a-strncmp.o)
 .bss           0x00000000100133e8        0x0 /usr/local/ps3dev/ppu/lib/gcc/powerpc64-ps3-elf/4.7.0/../../../../powerpc64-ps3-elf/lib/libc.a(lib_a-svfiprintf.o)
 .bss           0x00000000100133e8        0x0 /usr/local/ps3dev/ppu/lib/gcc/powerpc64-ps3-elf/4.7.0/../../../../powerpc64-ps3-elf/lib/libc.a(lib_a-abort.o)
 .bss           0x00000000100133e8        0x0 /usr/local/ps3dev/ppu/lib/gcc/powerpc64-ps3-elf/4.7.0/../../../../powerpc64-ps3-elf/lib/libc.a(lib_a-callocr.o)
 .bss           0x00000000100133e8        0x0 /usr/local/ps3dev/ppu/lib/gcc/powerpc64-ps3-elf/4.7.0/../../../../powerpc64-ps3-elf/lib/libc.a(lib_a-fclose.o)
 .bss           0x00000000100133e8        0x0 /usr/local/ps3dev/ppu/lib/gcc/powerpc64-ps3-elf/4.7.0/../../../../powerpc64-ps3-elf/lib/libc.a(lib_a-memmove.o)
 .bss           0x00000000100133e8        0x0 /usr/local/ps3dev/ppu/lib/gcc/powerpc64-ps3-elf/4.7.0/../../../../powerpc64-ps3-elf/lib/libc.a(lib_a-signal.o)
 .bss           0x00000000100133e8        0x0 /usr/local/ps3dev/ppu/lib/gcc/powerpc64-ps3-elf/4.7.0/../../../../powerpc64-ps3-elf/lib/libsysbase.a(close.o)
 .bss           0x00000000100133e8        0x0 /usr/local/ps3dev/ppu/lib/gcc/powerpc64-ps3-elf/4.7.0/../../../../powerpc64-ps3-elf/lib/libsysbase.a(sbrk.o)
 .bss           0x00000000100133e8        0x0 /usr/local/ps3dev/ppu/lib/gcc/powerpc64-ps3-elf/4.7.0/../../../../powerpc64-ps3-elf/lib/libsysbase.a(_exit.o)
 .bss           0x00000000100133e8        0x0 /usr/local/ps3dev/ppu/lib/gcc/powerpc64-ps3-elf/4.7.0/../../../../powerpc64-ps3-elf/lib/libsysbase.a(lseek.o)
 .bss           0x00000000100133e8        0x0 /usr/local/ps3dev/ppu/lib/gcc/powerpc64-ps3-elf/4.7.0/../../../../powerpc64-ps3-elf/lib/libsysbase.a(read.o)
 .bss           0x00000000100133e8        0x0 /usr/local/ps3dev/ppu/lib/gcc/powerpc64-ps3-elf/4.7.0/../../../../powerpc64-ps3-elf/lib/libsysbase.a(write.o)
 .bss           0x00000000100133e8        0x0 /usr/local/ps3dev/ppu/lib/gcc/powerpc64-ps3-elf/4.7.0/../../../../powerpc64-ps3-elf/lib/libsysbase.a(lock.o)
 .bss           0x00000000100133e8        0x0 /usr/local/ps3dev/ppu/lib/gcc/powerpc64-ps3-elf/4.7.0/../../../../powerpc64-ps3-elf/lib/libsysbase.a(getpid.o)
 .bss           0x00000000100133e8        0x0 /usr/local/ps3dev/ppu/lib/gcc/powerpc64-ps3-elf/4.7.0/../../../../powerpc64-ps3-elf/lib/libsysbase.a(kill.o)
 .bss           0x00000000100133e8        0x0 /usr/local/ps3dev/ppu/lib/gcc/powerpc64-ps3-elf/4.7.0/crtend.o
 .bss           0x00000000100133e8        0x0 /usr/local/ps3dev/ppu/lib/gcc/powerpc64-ps3-elf/4.7.0/../../../../powerpc64-ps3-elf/lib/lv2-crtn.o
 *(COMMON)
 COMMON         0x00000000100133e8      0x100 /usr/local/ps3dev/ppu/lib/gcc/powerpc64-ps3-elf/4.7.0/../../../../powerpc64-ps3-elf/lib/libc.a(lib_a-gdtoa-gethex.o)
                0x00000000100133e8                __hexdig
                0x00000000100134e8                . = ALIGN (0x8)

.iplt           0x00000000100134e8        0x0
 .iplt          0x0000000000000000        0x0 linker stubs
                0x0000000020000000                . = ALIGN (0x10000000)

.rsx_image
 *(.rsx_*)
                0x0000000020000000                _end = .
                0x0000000020000000                __end = .
                0x0000000020000000                PROVIDE (end, .)
                0x0000000020000000                . = ALIGN (0x8)

.stab
 *(.stab)

.stabstr
 *(.stabstr)

.stab.excl
 *(.stab.excl)

.stab.exclstr
 *(.stab.exclstr)

.stab.index
 *(.stab.index)

.stab.indexstr
 *(.stab.indexstr)

.comment        0x0000000000000000       0x11
 *(.comment)
 .comment       0x0000000000000000       0x11 /usr/local/ps3dev/ppu/lib/gcc/powerpc64-ps3-elf/4.7.0/crtbegin.o
                                         0x12 (size before relaxing)
 .comment       0x0000000000000000       0x12 /usr/local/ps3dev/ppu/lib/gcc/powerpc64-ps3-elf/4.7.0/../../../../powerpc64-ps3-elf/lib/lv2-crt0.o
 .comment       0x0000000000000000       0x12 /usr/local/ps3dev/libpsl1ght/ppu/lib/librt.a(sbrk.o)
 .comment       0x0000000000000000       0x12 /usr/local/ps3dev/libpsl1ght/ppu/lib/librt.a(exit.o)
 .comment       0x0000000000000000       0x12 /usr/local/ps3dev/libpsl1ght/ppu/lib/librt.a(close.o)
 .comment       0x0000000000000000       0x12 /usr/local/ps3dev/libpsl1ght/ppu/lib/librt.a(lseek.o)
 .comment       0x0000000000000000       0x12 /usr/local/ps3dev/libpsl1ght/ppu/lib/librt.a(read.o)
 .comment       0x0000000000000000       0x12 /usr/local/ps3dev/libpsl1ght/ppu/lib/librt.a(open.o)
 .comment       0x0000000000000000       0x12 /usr/local/ps3dev/libpsl1ght/ppu/lib/librt.a(sleep.o)
 .comment       0x0000000000000000       0x12 /usr/local/ps3dev/libpsl1ght/ppu/lib/librt.a(write.o)
 .comment       0x0000000000000000       0x12 /usr/local/ps3dev/libpsl1ght/ppu/lib/librt.a(fstat.o)
 .comment       0x0000000000000000       0x12 /usr/local/ps3dev/libpsl1ght/ppu/lib/librt.a(socket.o)
 .comment       0x0000000000000000       0x12 /usr/local/ps3dev/libpsl1ght/ppu/lib/librt.a(lock.o)
 .comment       0x0000000000000000       0x12 /usr/local/ps3dev/libpsl1ght/ppu/lib/librt.a(dirent.o)
 .comment       0x0000000000000000       0x12 /usr/local/ps3dev/libpsl1ght/ppu/lib/librt.a(mkdir.o)
 .comment       0x0000000000000000       0x12 /usr/local/ps3dev/libpsl1ght/ppu/lib/librt.a(times.o)
 .comment       0x0000000000000000       0x12 /usr/local/ps3dev/libpsl1ght/ppu/lib/librt.a(umask.o)
 .comment       0x0000000000000000       0x12 /usr/local/ps3dev/libpsl1ght/ppu/lib/librt.a(lv2errno.o)
 .comment       0x0000000000000000       0x12 /usr/local/ps3dev/libpsl1ght/ppu/lib/librt.a(heap.o)
 .comment       0x0000000000000000       0x12 /usr/local/ps3dev/libpsl1ght/ppu/lib/librt.a(chmod.o)
 .comment       0x0000000000000000       0x12 /usr/local/ps3dev/libpsl1ght/ppu/lib/librt.a(rmdir.o)
 .comment       0x0000000000000000       0x12 /usr/local/ps3dev/libpsl1ght/ppu/lib/librt.a(isatty.o)
 .comment       0x0000000000000000       0x12 /usr/local/ps3dev/libpsl1ght/ppu/lib/librt.a(gettod.o)
 .comment       0x0000000000000000       0x12 /usr/local/ps3dev/libpsl1ght/ppu/lib/librt.a(settod.o)
 .comment       0x0000000000000000       0x12 /usr/local/ps3dev/libpsl1ght/ppu/lib/liblv2.a(sprx.o)
 .comment       0x0000000000000000       0x12 /usr/local/ps3dev/ppu/lib/gcc/powerpc64-ps3-elf/4.7.0/../../../../powerpc64-ps3-elf/lib/libsysbase.a(syscalls.o)
 .comment       0x0000000000000000       0x12 /usr/local/ps3dev/ppu/lib/gcc/powerpc64-ps3-elf/4.7.0/../../../../powerpc64-ps3-elf/lib/libc.a(lib_a-errno.o)
 .comment       0x0000000000000000       0x12 /usr/local/ps3dev/ppu/lib/gcc/powerpc64-ps3-elf/4.7.0/../../../../powerpc64-ps3-elf/lib/libc.a(lib_a-exit.o)
 .comment       0x0000000000000000       0x12 /usr/local/ps3dev/ppu/lib/gcc/powerpc64-ps3-elf/4.7.0/../../../../powerpc64-ps3-elf/lib/libc.a(lib_a-getreent.o)
 .comment       0x0000000000000000       0x12 /usr/local/ps3dev/ppu/lib/gcc/powerpc64-ps3-elf/4.7.0/../../../../powerpc64-ps3-elf/lib/libc.a(lib_a-impure.o)
 .comment       0x0000000000000000       0x12 /usr/local/ps3dev/ppu/lib/gcc/powerpc64-ps3-elf/4.7.0/../../../../powerpc64-ps3-elf/lib/libc.a(lib_a-malloc.o)
 .comment       0x0000000000000000       0x12 /usr/local/ps3dev/ppu/lib/gcc/powerpc64-ps3-elf/4.7.0/../../../../powerpc64-ps3-elf/lib/libc.a(lib_a-mallocr.o)
 .comment       0x0000000000000000       0x12 /usr/local/ps3dev/ppu/lib/gcc/powerpc64-ps3-elf/4.7.0/../../../../powerpc64-ps3-elf/lib/libc.a(lib_a-memset.o)
 .comment       0x0000000000000000       0x12 /usr/local/ps3dev/ppu/lib/gcc/powerpc64-ps3-elf/4.7.0/../../../../powerpc64-ps3-elf/lib/libc.a(lib_a-mlock.o)
 .comment       0x0000000000000000       0x12 /usr/local/ps3dev/ppu/lib/gcc/powerpc64-ps3-elf/4.7.0/../../../../powerpc64-ps3-elf/lib/libc.a(lib_a-sscanf.o)
 .comment       0x0000000000000000       0x12 /usr/local/ps3dev/ppu/lib/gcc/powerpc64-ps3-elf/4.7.0/../../../../powerpc64-ps3-elf/lib/libc.a(lib_a-stdio.o)
 .comment       0x0000000000000000       0x12 /usr/local/ps3dev/ppu/lib/gcc/powerpc64-ps3-elf/4.7.0/../../../../powerpc64-ps3-elf/lib/libc.a(lib_a-strlen.o)
 .comment       0x0000000000000000       0x12 /usr/local/ps3dev/ppu/lib/gcc/powerpc64-ps3-elf/4.7.0/../../../../powerpc64-ps3-elf/lib/libc.a(lib_a-strncpy.o)
 .comment       0x0000000000000000       0x12 /usr/local/ps3dev/ppu/lib/gcc/powerpc64-ps3-elf/4.7.0/../../../../powerpc64-ps3-elf/lib/libc.a(lib_a-svfscanf.o)
 .comment       0x0000000000000000       0x12 /usr/local/ps3dev/ppu/lib/gcc/powerpc64-ps3-elf/4.7.0/../../../../powerpc64-ps3-elf/lib/libc.a(lib_a-__call_atexit.o)
 .comment       0x0000000000000000       0x12 /usr/local/ps3dev/ppu/lib/gcc/powerpc64-ps3-elf/4.7.0/../../../../powerpc64-ps3-elf/lib/libc.a(lib_a-ctype_.o)
 .comment       0x0000000000000000       0x12 /usr/local/ps3dev/ppu/lib/gcc/powerpc64-ps3-elf/4.7.0/../../../../powerpc64-ps3-elf/lib/libc.a(lib_a-freer.o)
 .comment       0x0000000000000000       0x12 /usr/local/ps3dev/ppu/lib/gcc/powerpc64-ps3-elf/4.7.0/../../../../powerpc64-ps3-elf/lib/libc.a(lib_a-iswspace.o)
 .comment       0x0000000000000000       0x12 /usr/local/ps3dev/ppu/lib/gcc/powerpc64-ps3-elf/4.7.0/../../../../powerpc64-ps3-elf/lib/libc.a(lib_a-locale.o)
 .comment       0x0000000000000000       0x12 /usr/local/ps3dev/ppu/lib/gcc/powerpc64-ps3-elf/4.7.0/../../../../powerpc64-ps3-elf/lib/libc.a(lib_a-lock_recursive.o)
 .comment       0x0000000000000000       0x12 /usr/local/ps3dev/ppu/lib/gcc/powerpc64-ps3-elf/4.7.0/../../../../powerpc64-ps3-elf/lib/libc.a(lib_a-mbrtowc.o)
 .comment       0x0000000000000000       0x12 /usr/local/ps3dev/ppu/lib/gcc/powerpc64-ps3-elf/4.7.0/../../../../powerpc64-ps3-elf/lib/libc.a(lib_a-mbtowc_r.o)
 .comment       0x0000000000000000       0x12 /usr/local/ps3dev/ppu/lib/gcc/powerpc64-ps3-elf/4.7.0/../../../../powerpc64-ps3-elf/lib/libc.a(lib_a-sccl.o)
 .comment       0x0000000000000000       0x12 /usr/local/ps3dev/ppu/lib/gcc/powerpc64-ps3-elf/4.7.0/../../../../powerpc64-ps3-elf/lib/libc.a(lib_a-sf_nan.o)
 .comment       0x0000000000000000       0x12 /usr/local/ps3dev/ppu/lib/gcc/powerpc64-ps3-elf/4.7.0/../../../../powerpc64-ps3-elf/lib/libc.a(lib_a-s_fpclassify.o)
 .comment       0x0000000000000000       0x12 /usr/local/ps3dev/ppu/lib/gcc/powerpc64-ps3-elf/4.7.0/../../../../powerpc64-ps3-elf/lib/libc.a(lib_a-sprintf.o)
 .comment       0x0000000000000000       0x12 /usr/local/ps3dev/ppu/lib/gcc/powerpc64-ps3-elf/4.7.0/../../../../powerpc64-ps3-elf/lib/libc.a(lib_a-strcmp.o)
 .comment       0x0000000000000000       0x12 /usr/local/ps3dev/ppu/lib/gcc/powerpc64-ps3-elf/4.7.0/../../../../powerpc64-ps3-elf/lib/libc.a(lib_a-strtod.o)
 .comment       0x0000000000000000       0x12 /usr/local/ps3dev/ppu/lib/gcc/powerpc64-ps3-elf/4.7.0/../../../../powerpc64-ps3-elf/lib/libc.a(lib_a-strtoll_r.o)
 .comment       0x0000000000000000       0x12 /usr/local/ps3dev/ppu/lib/gcc/powerpc64-ps3-elf/4.7.0/../../../../powerpc64-ps3-elf/lib/libc.a(lib_a-strtol.o)
 .comment       0x0000000000000000       0x12 /usr/local/ps3dev/ppu/lib/gcc/powerpc64-ps3-elf/4.7.0/../../../../powerpc64-ps3-elf/lib/libc.a(lib_a-strtoull_r.o)
 .comment       0x0000000000000000       0x12 /usr/local/ps3dev/ppu/lib/gcc/powerpc64-ps3-elf/4.7.0/../../../../powerpc64-ps3-elf/lib/libc.a(lib_a-strtoul.o)
 .comment       0x0000000000000000       0x12 /usr/local/ps3dev/ppu/lib/gcc/powerpc64-ps3-elf/4.7.0/../../../../powerpc64-ps3-elf/lib/libc.a(lib_a-svfiscanf.o)
 .comment       0x0000000000000000       0x12 /usr/local/ps3dev/ppu/lib/gcc/powerpc64-ps3-elf/4.7.0/../../../../powerpc64-ps3-elf/lib/libc.a(lib_a-svfprintf.o)
 .comment       0x0000000000000000       0x12 /usr/local/ps3dev/ppu/lib/gcc/powerpc64-ps3-elf/4.7.0/../../../../powerpc64-ps3-elf/lib/libc.a(lib_a-ungetc.o)
 .comment       0x0000000000000000       0x12 /usr/local/ps3dev/ppu/lib/gcc/powerpc64-ps3-elf/4.7.0/../../../../powerpc64-ps3-elf/lib/libc.a(lib_a-__atexit.o)
 .comment       0x0000000000000000       0x12 /usr/local/ps3dev/ppu/lib/gcc/powerpc64-ps3-elf/4.7.0/../../../../powerpc64-ps3-elf/lib/libc.a(lib_a-dtoa.o)
 .comment       0x0000000000000000       0x12 /usr/local/ps3dev/ppu/lib/gcc/powerpc64-ps3-elf/4.7.0/../../../../powerpc64-ps3-elf/lib/libc.a(lib_a-fflush.o)
 .comment       0x0000000000000000       0x12 /usr/local/ps3dev/ppu/lib/gcc/powerpc64-ps3-elf/4.7.0/../../../../powerpc64-ps3-elf/lib/libc.a(lib_a-findfp.o)
 .comment       0x0000000000000000       0x12 /usr/local/ps3dev/ppu/lib/gcc/powerpc64-ps3-elf/4.7.0/../../../../powerpc64-ps3-elf/lib/libc.a(lib_a-fwalk.o)
 .comment       0x0000000000000000       0x12 /usr/local/ps3dev/ppu/lib/gcc/powerpc64-ps3-elf/4.7.0/../../../../powerpc64-ps3-elf/lib/libc.a(lib_a-gdtoa-gethex.o)
 .comment       0x0000000000000000       0x12 /usr/local/ps3dev/ppu/lib/gcc/powerpc64-ps3-elf/4.7.0/../../../../powerpc64-ps3-elf/lib/libc.a(lib_a-gdtoa-hexnan.o)
 .comment       0x0000000000000000       0x12 /usr/local/ps3dev/ppu/lib/gcc/powerpc64-ps3-elf/4.7.0/../../../../powerpc64-ps3-elf/lib/libc.a(lib_a-lock_internal.o)
 .comment       0x0000000000000000       0x12 /usr/local/ps3dev/ppu/lib/gcc/powerpc64-ps3-elf/4.7.0/../../../../powerpc64-ps3-elf/lib/libc.a(lib_a-memchr.o)
 .comment       0x0000000000000000       0x12 /usr/local/ps3dev/ppu/lib/gcc/powerpc64-ps3-elf/4.7.0/../../../../powerpc64-ps3-elf/lib/libc.a(lib_a-memcpy.o)
 .comment       0x0000000000000000       0x12 /usr/local/ps3dev/ppu/lib/gcc/powerpc64-ps3-elf/4.7.0/../../../../powerpc64-ps3-elf/lib/libc.a(lib_a-mprec.o)
 .comment       0x0000000000000000       0x12 /usr/local/ps3dev/ppu/lib/gcc/powerpc64-ps3-elf/4.7.0/../../../../powerpc64-ps3-elf/lib/libc.a(lib_a-reallocr.o)
 .comment       0x0000000000000000       0x12 /usr/local/ps3dev/ppu/lib/gcc/powerpc64-ps3-elf/4.7.0/../../../../powerpc64-ps3-elf/lib/libc.a(lib_a-strncmp.o)
 .comment       0x0000000000000000       0x12 /usr/local/ps3dev/ppu/lib/gcc/powerpc64-ps3-elf/4.7.0/../../../../powerpc64-ps3-elf/lib/libc.a(lib_a-svfiprintf.o)
 .comment       0x0000000000000000       0x12 /usr/local/ps3dev/ppu/lib/gcc/powerpc64-ps3-elf/4.7.0/../../../../powerpc64-ps3-elf/lib/libc.a(lib_a-abort.o)
 .comment       0x0000000000000000       0x12 /usr/local/ps3dev/ppu/lib/gcc/powerpc64-ps3-elf/4.7.0/../../../../powerpc64-ps3-elf/lib/libc.a(lib_a-callocr.o)
 .comment       0x0000000000000000       0x12 /usr/local/ps3dev/ppu/lib/gcc/powerpc64-ps3-elf/4.7.0/../../../../powerpc64-ps3-elf/lib/libc.a(lib_a-fclose.o)
 .comment       0x0000000000000000       0x12 /usr/local/ps3dev/ppu/lib/gcc/powerpc64-ps3-elf/4.7.0/../../../../powerpc64-ps3-elf/lib/libc.a(lib_a-memmove.o)
 .comment       0x0000000000000000       0x12 /usr/local/ps3dev/ppu/lib/gcc/powerpc64-ps3-elf/4.7.0/../../../../powerpc64-ps3-elf/lib/libc.a(lib_a-signal.o)
 .comment       0x0000000000000000       0x12 /usr/local/ps3dev/ppu/lib/gcc/powerpc64-ps3-elf/4.7.0/../../../../powerpc64-ps3-elf/lib/libsysbase.a(close.o)
 .comment       0x0000000000000000       0x12 /usr/local/ps3dev/ppu/lib/gcc/powerpc64-ps3-elf/4.7.0/../../../../powerpc64-ps3-elf/lib/libsysbase.a(sbrk.o)
 .comment       0x0000000000000000       0x12 /usr/local/ps3dev/ppu/lib/gcc/powerpc64-ps3-elf/4.7.0/../../../../powerpc64-ps3-elf/lib/libsysbase.a(_exit.o)
 .comment       0x0000000000000000       0x12 /usr/local/ps3dev/ppu/lib/gcc/powerpc64-ps3-elf/4.7.0/../../../../powerpc64-ps3-elf/lib/libsysbase.a(lseek.o)
 .comment       0x0000000000000000       0x12 /usr/local/ps3dev/ppu/lib/gcc/powerpc64-ps3-elf/4.7.0/../../../../powerpc64-ps3-elf/lib/libsysbase.a(read.o)
 .comment       0x0000000000000000       0x12 /usr/local/ps3dev/ppu/lib/gcc/powerpc64-ps3-elf/4.7.0/../../../../powerpc64-ps3-elf/lib/libsysbase.a(write.o)
 .comment       0x0000000000000000       0x12 /usr/local/ps3dev/ppu/lib/gcc/powerpc64-ps3-elf/4.7.0/../../../../powerpc64-ps3-elf/lib/libsysbase.a(lock.o)
 .comment       0x0000000000000000       0x12 /usr/local/ps3dev/ppu/lib/gcc/powerpc64-ps3-elf/4.7.0/../../../../powerpc64-ps3-elf/lib/libsysbase.a(getpid.o)
 .comment       0x0000000000000000       0x12 /usr/local/ps3dev/ppu/lib/gcc/powerpc64-ps3-elf/4.7.0/../../../../powerpc64-ps3-elf/lib/libsysbase.a(kill.o)
 .comment       0x0000000000000000       0x12 /usr/local/ps3dev/ppu/lib/gcc/powerpc64-ps3-elf/4.7.0/crtend.o

.debug
 *(.debug)

.line
 *(.line)

.debug_srcinfo
 *(.debug_srcinfo)

.debug_sfnames
 *(.debug_sfnames)

.debug_aranges  0x0000000000000000     0x10c0
 *(.debug_aranges)
 .debug_aranges
                0x0000000000000000       0x20 /usr/local/ps3dev/ppu/lib/gcc/powerpc64-ps3-elf/4.7.0/../../../../powerpc64-ps3-elf/lib/libsysbase.a(syscalls.o)
 .debug_aranges
                0x0000000000000020       0x30 /usr/local/ps3dev/ppu/lib/gcc/powerpc64-ps3-elf/4.7.0/../../../../powerpc64-ps3-elf/lib/libc.a(lib_a-errno.o)
 .debug_aranges
                0x0000000000000050       0x30 /usr/local/ps3dev/ppu/lib/gcc/powerpc64-ps3-elf/4.7.0/../../../../powerpc64-ps3-elf/lib/libc.a(lib_a-exit.o)
 .debug_aranges
                0x0000000000000080       0x30 /usr/local/ps3dev/ppu/lib/gcc/powerpc64-ps3-elf/4.7.0/../../../../powerpc64-ps3-elf/lib/libc.a(lib_a-getreent.o)
 .debug_aranges
                0x00000000000000b0       0x20 /usr/local/ps3dev/ppu/lib/gcc/powerpc64-ps3-elf/4.7.0/../../../../powerpc64-ps3-elf/lib/libc.a(lib_a-impure.o)
 .debug_aranges
                0x00000000000000d0       0x40 /usr/local/ps3dev/ppu/lib/gcc/powerpc64-ps3-elf/4.7.0/../../../../powerpc64-ps3-elf/lib/libc.a(lib_a-malloc.o)
 .debug_aranges
                0x0000000000000110       0x30 /usr/local/ps3dev/ppu/lib/gcc/powerpc64-ps3-elf/4.7.0/../../../../powerpc64-ps3-elf/lib/libc.a(lib_a-mallocr.o)
 .debug_aranges
                0x0000000000000140       0x30 /usr/local/ps3dev/ppu/lib/gcc/powerpc64-ps3-elf/4.7.0/../../../../powerpc64-ps3-elf/lib/libc.a(lib_a-memset.o)
 .debug_aranges
                0x0000000000000170       0x40 /usr/local/ps3dev/ppu/lib/gcc/powerpc64-ps3-elf/4.7.0/../../../../powerpc64-ps3-elf/lib/libc.a(lib_a-mlock.o)
 .debug_aranges
                0x00000000000001b0       0x40 /usr/local/ps3dev/ppu/lib/gcc/powerpc64-ps3-elf/4.7.0/../../../../powerpc64-ps3-elf/lib/libc.a(lib_a-sscanf.o)
 .debug_aranges
                0x00000000000001f0       0x70 /usr/local/ps3dev/ppu/lib/gcc/powerpc64-ps3-elf/4.7.0/../../../../powerpc64-ps3-elf/lib/libc.a(lib_a-stdio.o)
 .debug_aranges
                0x0000000000000260       0x30 /usr/local/ps3dev/ppu/lib/gcc/powerpc64-ps3-elf/4.7.0/../../../../powerpc64-ps3-elf/lib/libc.a(lib_a-strlen.o)
 .debug_aranges
                0x0000000000000290       0x30 /usr/local/ps3dev/ppu/lib/gcc/powerpc64-ps3-elf/4.7.0/../../../../powerpc64-ps3-elf/lib/libc.a(lib_a-strncpy.o)
 .debug_aranges
                0x00000000000002c0       0x30 /usr/local/ps3dev/ppu/lib/gcc/powerpc64-ps3-elf/4.7.0/../../../../powerpc64-ps3-elf/lib/libc.a(lib_a-svfscanf.o)
 .debug_aranges
                0x00000000000002f0       0x30 /usr/local/ps3dev/ppu/lib/gcc/powerpc64-ps3-elf/4.7.0/../../../../powerpc64-ps3-elf/lib/libc.a(lib_a-__call_atexit.o)
 .debug_aranges
                0x0000000000000320       0x20 /usr/local/ps3dev/ppu/lib/gcc/powerpc64-ps3-elf/4.7.0/../../../../powerpc64-ps3-elf/lib/libc.a(lib_a-ctype_.o)
 .debug_aranges
                0x0000000000000340       0x40 /usr/local/ps3dev/ppu/lib/gcc/powerpc64-ps3-elf/4.7.0/../../../../powerpc64-ps3-elf/lib/libc.a(lib_a-freer.o)
 .debug_aranges
                0x0000000000000380       0x30 /usr/local/ps3dev/ppu/lib/gcc/powerpc64-ps3-elf/4.7.0/../../../../powerpc64-ps3-elf/lib/libc.a(lib_a-iswspace.o)
 .debug_aranges
                0x00000000000003b0       0xa0 /usr/local/ps3dev/ppu/lib/gcc/powerpc64-ps3-elf/4.7.0/../../../../powerpc64-ps3-elf/lib/libc.a(lib_a-locale.o)
 .debug_aranges
                0x0000000000000450       0x70 /usr/local/ps3dev/ppu/lib/gcc/powerpc64-ps3-elf/4.7.0/../../../../powerpc64-ps3-elf/lib/libc.a(lib_a-lock_recursive.o)
 .debug_aranges
                0x00000000000004c0       0x40 /usr/local/ps3dev/ppu/lib/gcc/powerpc64-ps3-elf/4.7.0/../../../../powerpc64-ps3-elf/lib/libc.a(lib_a-mbrtowc.o)
 .debug_aranges
                0x0000000000000500       0x40 /usr/local/ps3dev/ppu/lib/gcc/powerpc64-ps3-elf/4.7.0/../../../../powerpc64-ps3-elf/lib/libc.a(lib_a-mbtowc_r.o)
 .debug_aranges
                0x0000000000000540       0x30 /usr/local/ps3dev/ppu/lib/gcc/powerpc64-ps3-elf/4.7.0/../../../../powerpc64-ps3-elf/lib/libc.a(lib_a-sccl.o)
 .debug_aranges
                0x0000000000000570       0x30 /usr/local/ps3dev/ppu/lib/gcc/powerpc64-ps3-elf/4.7.0/../../../../powerpc64-ps3-elf/lib/libc.a(lib_a-sf_nan.o)
 .debug_aranges
                0x00000000000005a0       0x30 /usr/local/ps3dev/ppu/lib/gcc/powerpc64-ps3-elf/4.7.0/../../../../powerpc64-ps3-elf/lib/libc.a(lib_a-s_fpclassify.o)
 .debug_aranges
                0x00000000000005d0       0x40 /usr/local/ps3dev/ppu/lib/gcc/powerpc64-ps3-elf/4.7.0/../../../../powerpc64-ps3-elf/lib/libc.a(lib_a-sprintf.o)
 .debug_aranges
                0x0000000000000610       0x30 /usr/local/ps3dev/ppu/lib/gcc/powerpc64-ps3-elf/4.7.0/../../../../powerpc64-ps3-elf/lib/libc.a(lib_a-strcmp.o)
 .debug_aranges
                0x0000000000000640       0x50 /usr/local/ps3dev/ppu/lib/gcc/powerpc64-ps3-elf/4.7.0/../../../../powerpc64-ps3-elf/lib/libc.a(lib_a-strtod.o)
 .debug_aranges
                0x0000000000000690       0x30 /usr/local/ps3dev/ppu/lib/gcc/powerpc64-ps3-elf/4.7.0/../../../../powerpc64-ps3-elf/lib/libc.a(lib_a-strtoll_r.o)
 .debug_aranges
                0x00000000000006c0       0x40 /usr/local/ps3dev/ppu/lib/gcc/powerpc64-ps3-elf/4.7.0/../../../../powerpc64-ps3-elf/lib/libc.a(lib_a-strtol.o)
 .debug_aranges
                0x0000000000000700       0x30 /usr/local/ps3dev/ppu/lib/gcc/powerpc64-ps3-elf/4.7.0/../../../../powerpc64-ps3-elf/lib/libc.a(lib_a-strtoull_r.o)
 .debug_aranges
                0x0000000000000730       0x40 /usr/local/ps3dev/ppu/lib/gcc/powerpc64-ps3-elf/4.7.0/../../../../powerpc64-ps3-elf/lib/libc.a(lib_a-strtoul.o)
 .debug_aranges
                0x0000000000000770       0x60 /usr/local/ps3dev/ppu/lib/gcc/powerpc64-ps3-elf/4.7.0/../../../../powerpc64-ps3-elf/lib/libc.a(lib_a-svfiscanf.o)
 .debug_aranges
                0x00000000000007d0       0x30 /usr/local/ps3dev/ppu/lib/gcc/powerpc64-ps3-elf/4.7.0/../../../../powerpc64-ps3-elf/lib/libc.a(lib_a-svfprintf.o)
 .debug_aranges
                0x0000000000000800       0x50 /usr/local/ps3dev/ppu/lib/gcc/powerpc64-ps3-elf/4.7.0/../../../../powerpc64-ps3-elf/lib/libc.a(lib_a-ungetc.o)
 .debug_aranges
                0x0000000000000850       0x30 /usr/local/ps3dev/ppu/lib/gcc/powerpc64-ps3-elf/4.7.0/../../../../powerpc64-ps3-elf/lib/libc.a(lib_a-__atexit.o)
 .debug_aranges
                0x0000000000000880       0x40 /usr/local/ps3dev/ppu/lib/gcc/powerpc64-ps3-elf/4.7.0/../../../../powerpc64-ps3-elf/lib/libc.a(lib_a-dtoa.o)
 .debug_aranges
                0x00000000000008c0       0x50 /usr/local/ps3dev/ppu/lib/gcc/powerpc64-ps3-elf/4.7.0/../../../../powerpc64-ps3-elf/lib/libc.a(lib_a-fflush.o)
 .debug_aranges
                0x0000000000000910      0x100 /usr/local/ps3dev/ppu/lib/gcc/powerpc64-ps3-elf/4.7.0/../../../../powerpc64-ps3-elf/lib/libc.a(lib_a-findfp.o)
 .debug_aranges
                0x0000000000000a10       0x40 /usr/local/ps3dev/ppu/lib/gcc/powerpc64-ps3-elf/4.7.0/../../../../powerpc64-ps3-elf/lib/libc.a(lib_a-fwalk.o)
 .debug_aranges
                0x0000000000000a50       0x50 /usr/local/ps3dev/ppu/lib/gcc/powerpc64-ps3-elf/4.7.0/../../../../powerpc64-ps3-elf/lib/libc.a(lib_a-gdtoa-gethex.o)
 .debug_aranges
                0x0000000000000aa0       0x30 /usr/local/ps3dev/ppu/lib/gcc/powerpc64-ps3-elf/4.7.0/../../../../powerpc64-ps3-elf/lib/libc.a(lib_a-gdtoa-hexnan.o)
 .debug_aranges
                0x0000000000000ad0       0x40 /usr/local/ps3dev/ppu/lib/gcc/powerpc64-ps3-elf/4.7.0/../../../../powerpc64-ps3-elf/lib/libc.a(lib_a-lock_internal.o)
 .debug_aranges
                0x0000000000000b10       0x30 /usr/local/ps3dev/ppu/lib/gcc/powerpc64-ps3-elf/4.7.0/../../../../powerpc64-ps3-elf/lib/libc.a(lib_a-memchr.o)
 .debug_aranges
                0x0000000000000b40       0x30 /usr/local/ps3dev/ppu/lib/gcc/powerpc64-ps3-elf/4.7.0/../../../../powerpc64-ps3-elf/lib/libc.a(lib_a-memcpy.o)
 .debug_aranges
                0x0000000000000b70      0x150 /usr/local/ps3dev/ppu/lib/gcc/powerpc64-ps3-elf/4.7.0/../../../../powerpc64-ps3-elf/lib/libc.a(lib_a-mprec.o)
 .debug_aranges
                0x0000000000000cc0       0x30 /usr/local/ps3dev/ppu/lib/gcc/powerpc64-ps3-elf/4.7.0/../../../../powerpc64-ps3-elf/lib/libc.a(lib_a-reallocr.o)
 .debug_aranges
                0x0000000000000cf0       0x30 /usr/local/ps3dev/ppu/lib/gcc/powerpc64-ps3-elf/4.7.0/../../../../powerpc64-ps3-elf/lib/libc.a(lib_a-strncmp.o)
 .debug_aranges
                0x0000000000000d20       0x40 /usr/local/ps3dev/ppu/lib/gcc/powerpc64-ps3-elf/4.7.0/../../../../powerpc64-ps3-elf/lib/libc.a(lib_a-svfiprintf.o)
 .debug_aranges
                0x0000000000000d60       0x30 /usr/local/ps3dev/ppu/lib/gcc/powerpc64-ps3-elf/4.7.0/../../../../powerpc64-ps3-elf/lib/libc.a(lib_a-abort.o)
 .debug_aranges
                0x0000000000000d90       0x30 /usr/local/ps3dev/ppu/lib/gcc/powerpc64-ps3-elf/4.7.0/../../../../powerpc64-ps3-elf/lib/libc.a(lib_a-callocr.o)
 .debug_aranges
                0x0000000000000dc0       0x40 /usr/local/ps3dev/ppu/lib/gcc/powerpc64-ps3-elf/4.7.0/../../../../powerpc64-ps3-elf/lib/libc.a(lib_a-fclose.o)
 .debug_aranges
                0x0000000000000e00       0x30 /usr/local/ps3dev/ppu/lib/gcc/powerpc64-ps3-elf/4.7.0/../../../../powerpc64-ps3-elf/lib/libc.a(lib_a-memmove.o)
 .debug_aranges
                0x0000000000000e30       0xa0 /usr/local/ps3dev/ppu/lib/gcc/powerpc64-ps3-elf/4.7.0/../../../../powerpc64-ps3-elf/lib/libc.a(lib_a-signal.o)
 .debug_aranges
                0x0000000000000ed0       0x30 /usr/local/ps3dev/ppu/lib/gcc/powerpc64-ps3-elf/4.7.0/../../../../powerpc64-ps3-elf/lib/libsysbase.a(close.o)
 .debug_aranges
                0x0000000000000f00       0x30 /usr/local/ps3dev/ppu/lib/gcc/powerpc64-ps3-elf/4.7.0/../../../../powerpc64-ps3-elf/lib/libsysbase.a(sbrk.o)
 .debug_aranges
                0x0000000000000f30       0x30 /usr/local/ps3dev/ppu/lib/gcc/powerpc64-ps3-elf/4.7.0/../../../../powerpc64-ps3-elf/lib/libsysbase.a(_exit.o)
 .debug_aranges
                0x0000000000000f60       0x30 /usr/local/ps3dev/ppu/lib/gcc/powerpc64-ps3-elf/4.7.0/../../../../powerpc64-ps3-elf/lib/libsysbase.a(lseek.o)
 .debug_aranges
                0x0000000000000f90       0x30 /usr/local/ps3dev/ppu/lib/gcc/powerpc64-ps3-elf/4.7.0/../../../../powerpc64-ps3-elf/lib/libsysbase.a(read.o)
 .debug_aranges
                0x0000000000000fc0       0x30 /usr/local/ps3dev/ppu/lib/gcc/powerpc64-ps3-elf/4.7.0/../../../../powerpc64-ps3-elf/lib/libsysbase.a(write.o)
 .debug_aranges
                0x0000000000000ff0       0x70 /usr/local/ps3dev/ppu/lib/gcc/powerpc64-ps3-elf/4.7.0/../../../../powerpc64-ps3-elf/lib/libsysbase.a(lock.o)
 .debug_aranges
                0x0000000000001060       0x30 /usr/local/ps3dev/ppu/lib/gcc/powerpc64-ps3-elf/4.7.0/../../../../powerpc64-ps3-elf/lib/libsysbase.a(getpid.o)
 .debug_aranges
                0x0000000000001090       0x30 /usr/local/ps3dev/ppu/lib/gcc/powerpc64-ps3-elf/4.7.0/../../../../powerpc64-ps3-elf/lib/libsysbase.a(kill.o)

.debug_pubnames
 *(.debug_pubnames)

.debug_info     0x0000000000000000    0x2e98a
 *(.debug_info .gnu.linkonce.wi.*)
 .debug_info    0x0000000000000000     0x152c /usr/local/ps3dev/ppu/lib/gcc/powerpc64-ps3-elf/4.7.0/../../../../powerpc64-ps3-elf/lib/libsysbase.a(syscalls.o)
 .debug_info    0x000000000000152c      0xa07 /usr/local/ps3dev/ppu/lib/gcc/powerpc64-ps3-elf/4.7.0/../../../../powerpc64-ps3-elf/lib/libc.a(lib_a-errno.o)
 .debug_info    0x0000000000001f33      0xa5d /usr/local/ps3dev/ppu/lib/gcc/powerpc64-ps3-elf/4.7.0/../../../../powerpc64-ps3-elf/lib/libc.a(lib_a-exit.o)
 .debug_info    0x0000000000002990      0xaa7 /usr/local/ps3dev/ppu/lib/gcc/powerpc64-ps3-elf/4.7.0/../../../../powerpc64-ps3-elf/lib/libc.a(lib_a-getreent.o)
 .debug_info    0x0000000000003437      0x9f2 /usr/local/ps3dev/ppu/lib/gcc/powerpc64-ps3-elf/4.7.0/../../../../powerpc64-ps3-elf/lib/libc.a(lib_a-impure.o)
 .debug_info    0x0000000000003e29      0xab4 /usr/local/ps3dev/ppu/lib/gcc/powerpc64-ps3-elf/4.7.0/../../../../powerpc64-ps3-elf/lib/libc.a(lib_a-malloc.o)
 .debug_info    0x00000000000048dd      0xf6a /usr/local/ps3dev/ppu/lib/gcc/powerpc64-ps3-elf/4.7.0/../../../../powerpc64-ps3-elf/lib/libc.a(lib_a-mallocr.o)
 .debug_info    0x0000000000005847      0x12f /usr/local/ps3dev/ppu/lib/gcc/powerpc64-ps3-elf/4.7.0/../../../../powerpc64-ps3-elf/lib/libc.a(lib_a-memset.o)
 .debug_info    0x0000000000005976      0xa9d /usr/local/ps3dev/ppu/lib/gcc/powerpc64-ps3-elf/4.7.0/../../../../powerpc64-ps3-elf/lib/libc.a(lib_a-mlock.o)
 .debug_info    0x0000000000006413      0xbb9 /usr/local/ps3dev/ppu/lib/gcc/powerpc64-ps3-elf/4.7.0/../../../../powerpc64-ps3-elf/lib/libc.a(lib_a-sscanf.o)
 .debug_info    0x0000000000006fcc      0xd37 /usr/local/ps3dev/ppu/lib/gcc/powerpc64-ps3-elf/4.7.0/../../../../powerpc64-ps3-elf/lib/libc.a(lib_a-stdio.o)
 .debug_info    0x0000000000007d03       0xf5 /usr/local/ps3dev/ppu/lib/gcc/powerpc64-ps3-elf/4.7.0/../../../../powerpc64-ps3-elf/lib/libc.a(lib_a-strlen.o)
 .debug_info    0x0000000000007df8      0x140 /usr/local/ps3dev/ppu/lib/gcc/powerpc64-ps3-elf/4.7.0/../../../../powerpc64-ps3-elf/lib/libc.a(lib_a-strncpy.o)
 .debug_info    0x0000000000007f38     0x1508 /usr/local/ps3dev/ppu/lib/gcc/powerpc64-ps3-elf/4.7.0/../../../../powerpc64-ps3-elf/lib/libc.a(lib_a-svfscanf.o)
 .debug_info    0x0000000000009440      0xb36 /usr/local/ps3dev/ppu/lib/gcc/powerpc64-ps3-elf/4.7.0/../../../../powerpc64-ps3-elf/lib/libc.a(lib_a-__call_atexit.o)
 .debug_info    0x0000000000009f76       0x79 /usr/local/ps3dev/ppu/lib/gcc/powerpc64-ps3-elf/4.7.0/../../../../powerpc64-ps3-elf/lib/libc.a(lib_a-ctype_.o)
 .debug_info    0x0000000000009fef      0xde7 /usr/local/ps3dev/ppu/lib/gcc/powerpc64-ps3-elf/4.7.0/../../../../powerpc64-ps3-elf/lib/libc.a(lib_a-freer.o)
 .debug_info    0x000000000000add6       0xdd /usr/local/ps3dev/ppu/lib/gcc/powerpc64-ps3-elf/4.7.0/../../../../powerpc64-ps3-elf/lib/libc.a(lib_a-iswspace.o)
 .debug_info    0x000000000000aeb3      0xe2c /usr/local/ps3dev/ppu/lib/gcc/powerpc64-ps3-elf/4.7.0/../../../../powerpc64-ps3-elf/lib/libc.a(lib_a-locale.o)
 .debug_info    0x000000000000bcdf      0x3ee /usr/local/ps3dev/ppu/lib/gcc/powerpc64-ps3-elf/4.7.0/../../../../powerpc64-ps3-elf/lib/libc.a(lib_a-lock_recursive.o)
 .debug_info    0x000000000000c0cd      0xc2f /usr/local/ps3dev/ppu/lib/gcc/powerpc64-ps3-elf/4.7.0/../../../../powerpc64-ps3-elf/lib/libc.a(lib_a-mbrtowc.o)
 .debug_info    0x000000000000ccfc      0xb59 /usr/local/ps3dev/ppu/lib/gcc/powerpc64-ps3-elf/4.7.0/../../../../powerpc64-ps3-elf/lib/libc.a(lib_a-mbtowc_r.o)
 .debug_info    0x000000000000d855      0x117 /usr/local/ps3dev/ppu/lib/gcc/powerpc64-ps3-elf/4.7.0/../../../../powerpc64-ps3-elf/lib/libc.a(lib_a-sccl.o)
 .debug_info    0x000000000000d96c       0xe4 /usr/local/ps3dev/ppu/lib/gcc/powerpc64-ps3-elf/4.7.0/../../../../powerpc64-ps3-elf/lib/libc.a(lib_a-sf_nan.o)
 .debug_info    0x000000000000da50      0x158 /usr/local/ps3dev/ppu/lib/gcc/powerpc64-ps3-elf/4.7.0/../../../../powerpc64-ps3-elf/lib/libc.a(lib_a-s_fpclassify.o)
 .debug_info    0x000000000000dba8      0xb6c /usr/local/ps3dev/ppu/lib/gcc/powerpc64-ps3-elf/4.7.0/../../../../powerpc64-ps3-elf/lib/libc.a(lib_a-sprintf.o)
 .debug_info    0x000000000000e714       0xf5 /usr/local/ps3dev/ppu/lib/gcc/powerpc64-ps3-elf/4.7.0/../../../../powerpc64-ps3-elf/lib/libc.a(lib_a-strcmp.o)
 .debug_info    0x000000000000e809     0x1a7f /usr/local/ps3dev/ppu/lib/gcc/powerpc64-ps3-elf/4.7.0/../../../../powerpc64-ps3-elf/lib/libc.a(lib_a-strtod.o)
 .debug_info    0x0000000000010288      0xaa1 /usr/local/ps3dev/ppu/lib/gcc/powerpc64-ps3-elf/4.7.0/../../../../powerpc64-ps3-elf/lib/libc.a(lib_a-strtoll_r.o)
 .debug_info    0x0000000000010d29      0xb2c /usr/local/ps3dev/ppu/lib/gcc/powerpc64-ps3-elf/4.7.0/../../../../powerpc64-ps3-elf/lib/libc.a(lib_a-strtol.o)
 .debug_info    0x0000000000011855      0xaa1 /usr/local/ps3dev/ppu/lib/gcc/powerpc64-ps3-elf/4.7.0/../../../../powerpc64-ps3-elf/lib/libc.a(lib_a-strtoull_r.o)
 .debug_info    0x00000000000122f6      0xb2c /usr/local/ps3dev/ppu/lib/gcc/powerpc64-ps3-elf/4.7.0/../../../../powerpc64-ps3-elf/lib/libc.a(lib_a-strtoul.o)
 .debug_info    0x0000000000012e22     0x1419 /usr/local/ps3dev/ppu/lib/gcc/powerpc64-ps3-elf/4.7.0/../../../../powerpc64-ps3-elf/lib/libc.a(lib_a-svfiscanf.o)
 .debug_info    0x000000000001423b     0x18a1 /usr/local/ps3dev/ppu/lib/gcc/powerpc64-ps3-elf/4.7.0/../../../../powerpc64-ps3-elf/lib/libc.a(lib_a-svfprintf.o)
 .debug_info    0x0000000000015adc      0xcbc /usr/local/ps3dev/ppu/lib/gcc/powerpc64-ps3-elf/4.7.0/../../../../powerpc64-ps3-elf/lib/libc.a(lib_a-ungetc.o)
 .debug_info    0x0000000000016798      0xb3a /usr/local/ps3dev/ppu/lib/gcc/powerpc64-ps3-elf/4.7.0/../../../../powerpc64-ps3-elf/lib/libc.a(lib_a-__atexit.o)
 .debug_info    0x00000000000172d2     0x15a1 /usr/local/ps3dev/ppu/lib/gcc/powerpc64-ps3-elf/4.7.0/../../../../powerpc64-ps3-elf/lib/libc.a(lib_a-dtoa.o)
 .debug_info    0x0000000000018873      0xd2b /usr/local/ps3dev/ppu/lib/gcc/powerpc64-ps3-elf/4.7.0/../../../../powerpc64-ps3-elf/lib/libc.a(lib_a-fflush.o)
 .debug_info    0x000000000001959e     0x1152 /usr/local/ps3dev/ppu/lib/gcc/powerpc64-ps3-elf/4.7.0/../../../../powerpc64-ps3-elf/lib/libc.a(lib_a-findfp.o)
 .debug_info    0x000000000001a6f0      0xb1e /usr/local/ps3dev/ppu/lib/gcc/powerpc64-ps3-elf/4.7.0/../../../../powerpc64-ps3-elf/lib/libc.a(lib_a-fwalk.o)
 .debug_info    0x000000000001b20e     0x1450 /usr/local/ps3dev/ppu/lib/gcc/powerpc64-ps3-elf/4.7.0/../../../../powerpc64-ps3-elf/lib/libc.a(lib_a-gdtoa-gethex.o)
 .debug_info    0x000000000001c65e      0x360 /usr/local/ps3dev/ppu/lib/gcc/powerpc64-ps3-elf/4.7.0/../../../../powerpc64-ps3-elf/lib/libc.a(lib_a-gdtoa-hexnan.o)
 .debug_info    0x000000000001c9be      0x2de /usr/local/ps3dev/ppu/lib/gcc/powerpc64-ps3-elf/4.7.0/../../../../powerpc64-ps3-elf/lib/libc.a(lib_a-lock_internal.o)
 .debug_info    0x000000000001cc9c      0x143 /usr/local/ps3dev/ppu/lib/gcc/powerpc64-ps3-elf/4.7.0/../../../../powerpc64-ps3-elf/lib/libc.a(lib_a-memchr.o)
 .debug_info    0x000000000001cddf      0x149 /usr/local/ps3dev/ppu/lib/gcc/powerpc64-ps3-elf/4.7.0/../../../../powerpc64-ps3-elf/lib/libc.a(lib_a-memcpy.o)
 .debug_info    0x000000000001cf28     0x1935 /usr/local/ps3dev/ppu/lib/gcc/powerpc64-ps3-elf/4.7.0/../../../../powerpc64-ps3-elf/lib/libc.a(lib_a-mprec.o)
 .debug_info    0x000000000001e85d      0xe76 /usr/local/ps3dev/ppu/lib/gcc/powerpc64-ps3-elf/4.7.0/../../../../powerpc64-ps3-elf/lib/libc.a(lib_a-reallocr.o)
 .debug_info    0x000000000001f6d3      0x10d /usr/local/ps3dev/ppu/lib/gcc/powerpc64-ps3-elf/4.7.0/../../../../powerpc64-ps3-elf/lib/libc.a(lib_a-strncmp.o)
 .debug_info    0x000000000001f7e0     0x11e5 /usr/local/ps3dev/ppu/lib/gcc/powerpc64-ps3-elf/4.7.0/../../../../powerpc64-ps3-elf/lib/libc.a(lib_a-svfiprintf.o)
 .debug_info    0x00000000000209c5       0xfb /usr/local/ps3dev/ppu/lib/gcc/powerpc64-ps3-elf/4.7.0/../../../../powerpc64-ps3-elf/lib/libc.a(lib_a-abort.o)
 .debug_info    0x0000000000020ac0      0xb5f /usr/local/ps3dev/ppu/lib/gcc/powerpc64-ps3-elf/4.7.0/../../../../powerpc64-ps3-elf/lib/libc.a(lib_a-callocr.o)
 .debug_info    0x000000000002161f      0xc32 /usr/local/ps3dev/ppu/lib/gcc/powerpc64-ps3-elf/4.7.0/../../../../powerpc64-ps3-elf/lib/libc.a(lib_a-fclose.o)
 .debug_info    0x0000000000022251      0x149 /usr/local/ps3dev/ppu/lib/gcc/powerpc64-ps3-elf/4.7.0/../../../../powerpc64-ps3-elf/lib/libc.a(lib_a-memmove.o)
 .debug_info    0x000000000002239a      0xd82 /usr/local/ps3dev/ppu/lib/gcc/powerpc64-ps3-elf/4.7.0/../../../../powerpc64-ps3-elf/lib/libc.a(lib_a-signal.o)
 .debug_info    0x000000000002311c     0x158c /usr/local/ps3dev/ppu/lib/gcc/powerpc64-ps3-elf/4.7.0/../../../../powerpc64-ps3-elf/lib/libsysbase.a(close.o)
 .debug_info    0x00000000000246a8     0x1594 /usr/local/ps3dev/ppu/lib/gcc/powerpc64-ps3-elf/4.7.0/../../../../powerpc64-ps3-elf/lib/libsysbase.a(sbrk.o)
 .debug_info    0x0000000000025c3c     0x1568 /usr/local/ps3dev/ppu/lib/gcc/powerpc64-ps3-elf/4.7.0/../../../../powerpc64-ps3-elf/lib/libsysbase.a(_exit.o)
 .debug_info    0x00000000000271a4     0x15af /usr/local/ps3dev/ppu/lib/gcc/powerpc64-ps3-elf/4.7.0/../../../../powerpc64-ps3-elf/lib/libsysbase.a(lseek.o)
 .debug_info    0x0000000000028753     0x15b6 /usr/local/ps3dev/ppu/lib/gcc/powerpc64-ps3-elf/4.7.0/../../../../powerpc64-ps3-elf/lib/libsysbase.a(read.o)
 .debug_info    0x0000000000029d09     0x15b6 /usr/local/ps3dev/ppu/lib/gcc/powerpc64-ps3-elf/4.7.0/../../../../powerpc64-ps3-elf/lib/libsysbase.a(write.o)
 .debug_info    0x000000000002b2bf     0x1746 /usr/local/ps3dev/ppu/lib/gcc/powerpc64-ps3-elf/4.7.0/../../../../powerpc64-ps3-elf/lib/libsysbase.a(lock.o)
 .debug_info    0x000000000002ca05     0x157e /usr/local/ps3dev/ppu/lib/gcc/powerpc64-ps3-elf/4.7.0/../../../../powerpc64-ps3-elf/lib/libsysbase.a(getpid.o)
 .debug_info    0x000000000002df83      0xa07 /usr/local/ps3dev/ppu/lib/gcc/powerpc64-ps3-elf/4.7.0/../../../../powerpc64-ps3-elf/lib/libsysbase.a(kill.o)

.debug_abbrev   0x0000000000000000     0x731b
 *(.debug_abbrev)
 .debug_abbrev  0x0000000000000000      0x19c /usr/local/ps3dev/ppu/lib/gcc/powerpc64-ps3-elf/4.7.0/../../../../powerpc64-ps3-elf/lib/libsysbase.a(syscalls.o)
 .debug_abbrev  0x000000000000019c      0x18f /usr/local/ps3dev/ppu/lib/gcc/powerpc64-ps3-elf/4.7.0/../../../../powerpc64-ps3-elf/lib/libc.a(lib_a-errno.o)
 .debug_abbrev  0x000000000000032b      0x1d7 /usr/local/ps3dev/ppu/lib/gcc/powerpc64-ps3-elf/4.7.0/../../../../powerpc64-ps3-elf/lib/libc.a(lib_a-exit.o)
 .debug_abbrev  0x0000000000000502      0x1e3 /usr/local/ps3dev/ppu/lib/gcc/powerpc64-ps3-elf/4.7.0/../../../../powerpc64-ps3-elf/lib/libc.a(lib_a-getreent.o)
 .debug_abbrev  0x00000000000006e5      0x16f /usr/local/ps3dev/ppu/lib/gcc/powerpc64-ps3-elf/4.7.0/../../../../powerpc64-ps3-elf/lib/libc.a(lib_a-impure.o)
 .debug_abbrev  0x0000000000000854      0x1f5 /usr/local/ps3dev/ppu/lib/gcc/powerpc64-ps3-elf/4.7.0/../../../../powerpc64-ps3-elf/lib/libc.a(lib_a-malloc.o)
 .debug_abbrev  0x0000000000000a49      0x293 /usr/local/ps3dev/ppu/lib/gcc/powerpc64-ps3-elf/4.7.0/../../../../powerpc64-ps3-elf/lib/libc.a(lib_a-mallocr.o)
 .debug_abbrev  0x0000000000000cdc       0xa1 /usr/local/ps3dev/ppu/lib/gcc/powerpc64-ps3-elf/4.7.0/../../../../powerpc64-ps3-elf/lib/libc.a(lib_a-memset.o)
 .debug_abbrev  0x0000000000000d7d      0x1ca /usr/local/ps3dev/ppu/lib/gcc/powerpc64-ps3-elf/4.7.0/../../../../powerpc64-ps3-elf/lib/libc.a(lib_a-mlock.o)
 .debug_abbrev  0x0000000000000f47      0x212 /usr/local/ps3dev/ppu/lib/gcc/powerpc64-ps3-elf/4.7.0/../../../../powerpc64-ps3-elf/lib/libc.a(lib_a-sscanf.o)
 .debug_abbrev  0x0000000000001159      0x238 /usr/local/ps3dev/ppu/lib/gcc/powerpc64-ps3-elf/4.7.0/../../../../powerpc64-ps3-elf/lib/libc.a(lib_a-stdio.o)
 .debug_abbrev  0x0000000000001391       0x83 /usr/local/ps3dev/ppu/lib/gcc/powerpc64-ps3-elf/4.7.0/../../../../powerpc64-ps3-elf/lib/libc.a(lib_a-strlen.o)
 .debug_abbrev  0x0000000000001414       0xa1 /usr/local/ps3dev/ppu/lib/gcc/powerpc64-ps3-elf/4.7.0/../../../../powerpc64-ps3-elf/lib/libc.a(lib_a-strncpy.o)
 .debug_abbrev  0x00000000000014b5      0x2b4 /usr/local/ps3dev/ppu/lib/gcc/powerpc64-ps3-elf/4.7.0/../../../../powerpc64-ps3-elf/lib/libc.a(lib_a-svfscanf.o)
 .debug_abbrev  0x0000000000001769      0x234 /usr/local/ps3dev/ppu/lib/gcc/powerpc64-ps3-elf/4.7.0/../../../../powerpc64-ps3-elf/lib/libc.a(lib_a-__call_atexit.o)
 .debug_abbrev  0x000000000000199d       0x4e /usr/local/ps3dev/ppu/lib/gcc/powerpc64-ps3-elf/4.7.0/../../../../powerpc64-ps3-elf/lib/libc.a(lib_a-ctype_.o)
 .debug_abbrev  0x00000000000019eb      0x25c /usr/local/ps3dev/ppu/lib/gcc/powerpc64-ps3-elf/4.7.0/../../../../powerpc64-ps3-elf/lib/libc.a(lib_a-freer.o)
 .debug_abbrev  0x0000000000001c47       0x85 /usr/local/ps3dev/ppu/lib/gcc/powerpc64-ps3-elf/4.7.0/../../../../powerpc64-ps3-elf/lib/libc.a(lib_a-iswspace.o)
 .debug_abbrev  0x0000000000001ccc      0x2a3 /usr/local/ps3dev/ppu/lib/gcc/powerpc64-ps3-elf/4.7.0/../../../../powerpc64-ps3-elf/lib/libc.a(lib_a-locale.o)
 .debug_abbrev  0x0000000000001f6f      0x119 /usr/local/ps3dev/ppu/lib/gcc/powerpc64-ps3-elf/4.7.0/../../../../powerpc64-ps3-elf/lib/libc.a(lib_a-lock_recursive.o)
 .debug_abbrev  0x0000000000002088      0x1f1 /usr/local/ps3dev/ppu/lib/gcc/powerpc64-ps3-elf/4.7.0/../../../../powerpc64-ps3-elf/lib/libc.a(lib_a-mbrtowc.o)
 .debug_abbrev  0x0000000000002279      0x22b /usr/local/ps3dev/ppu/lib/gcc/powerpc64-ps3-elf/4.7.0/../../../../powerpc64-ps3-elf/lib/libc.a(lib_a-mbtowc_r.o)
 .debug_abbrev  0x00000000000024a4       0x89 /usr/local/ps3dev/ppu/lib/gcc/powerpc64-ps3-elf/4.7.0/../../../../powerpc64-ps3-elf/lib/libc.a(lib_a-sccl.o)
 .debug_abbrev  0x000000000000252d       0x74 /usr/local/ps3dev/ppu/lib/gcc/powerpc64-ps3-elf/4.7.0/../../../../powerpc64-ps3-elf/lib/libc.a(lib_a-sf_nan.o)
 .debug_abbrev  0x00000000000025a1       0xca /usr/local/ps3dev/ppu/lib/gcc/powerpc64-ps3-elf/4.7.0/../../../../powerpc64-ps3-elf/lib/libc.a(lib_a-s_fpclassify.o)
 .debug_abbrev  0x000000000000266b      0x205 /usr/local/ps3dev/ppu/lib/gcc/powerpc64-ps3-elf/4.7.0/../../../../powerpc64-ps3-elf/lib/libc.a(lib_a-sprintf.o)
 .debug_abbrev  0x0000000000002870       0x76 /usr/local/ps3dev/ppu/lib/gcc/powerpc64-ps3-elf/4.7.0/../../../../powerpc64-ps3-elf/lib/libc.a(lib_a-strcmp.o)
 .debug_abbrev  0x00000000000028e6      0x3c3 /usr/local/ps3dev/ppu/lib/gcc/powerpc64-ps3-elf/4.7.0/../../../../powerpc64-ps3-elf/lib/libc.a(lib_a-strtod.o)
 .debug_abbrev  0x0000000000002ca9      0x1be /usr/local/ps3dev/ppu/lib/gcc/powerpc64-ps3-elf/4.7.0/../../../../powerpc64-ps3-elf/lib/libc.a(lib_a-strtoll_r.o)
 .debug_abbrev  0x0000000000002e67      0x221 /usr/local/ps3dev/ppu/lib/gcc/powerpc64-ps3-elf/4.7.0/../../../../powerpc64-ps3-elf/lib/libc.a(lib_a-strtol.o)
 .debug_abbrev  0x0000000000003088      0x1be /usr/local/ps3dev/ppu/lib/gcc/powerpc64-ps3-elf/4.7.0/../../../../powerpc64-ps3-elf/lib/libc.a(lib_a-strtoull_r.o)
 .debug_abbrev  0x0000000000003246      0x221 /usr/local/ps3dev/ppu/lib/gcc/powerpc64-ps3-elf/4.7.0/../../../../powerpc64-ps3-elf/lib/libc.a(lib_a-strtoul.o)
 .debug_abbrev  0x0000000000003467      0x328 /usr/local/ps3dev/ppu/lib/gcc/powerpc64-ps3-elf/4.7.0/../../../../powerpc64-ps3-elf/lib/libc.a(lib_a-svfiscanf.o)
 .debug_abbrev  0x000000000000378f      0x364 /usr/local/ps3dev/ppu/lib/gcc/powerpc64-ps3-elf/4.7.0/../../../../powerpc64-ps3-elf/lib/libc.a(lib_a-svfprintf.o)
 .debug_abbrev  0x0000000000003af3      0x24c /usr/local/ps3dev/ppu/lib/gcc/powerpc64-ps3-elf/4.7.0/../../../../powerpc64-ps3-elf/lib/libc.a(lib_a-ungetc.o)
 .debug_abbrev  0x0000000000003d3f      0x233 /usr/local/ps3dev/ppu/lib/gcc/powerpc64-ps3-elf/4.7.0/../../../../powerpc64-ps3-elf/lib/libc.a(lib_a-__atexit.o)
 .debug_abbrev  0x0000000000003f72      0x284 /usr/local/ps3dev/ppu/lib/gcc/powerpc64-ps3-elf/4.7.0/../../../../powerpc64-ps3-elf/lib/libc.a(lib_a-dtoa.o)
 .debug_abbrev  0x00000000000041f6      0x2c3 /usr/local/ps3dev/ppu/lib/gcc/powerpc64-ps3-elf/4.7.0/../../../../powerpc64-ps3-elf/lib/libc.a(lib_a-fflush.o)
 .debug_abbrev  0x00000000000044b9      0x312 /usr/local/ps3dev/ppu/lib/gcc/powerpc64-ps3-elf/4.7.0/../../../../powerpc64-ps3-elf/lib/libc.a(lib_a-findfp.o)
 .debug_abbrev  0x00000000000047cb      0x1b3 /usr/local/ps3dev/ppu/lib/gcc/powerpc64-ps3-elf/4.7.0/../../../../powerpc64-ps3-elf/lib/libc.a(lib_a-fwalk.o)
 .debug_abbrev  0x000000000000497e      0x389 /usr/local/ps3dev/ppu/lib/gcc/powerpc64-ps3-elf/4.7.0/../../../../powerpc64-ps3-elf/lib/libc.a(lib_a-gdtoa-gethex.o)
 .debug_abbrev  0x0000000000004d07      0x177 /usr/local/ps3dev/ppu/lib/gcc/powerpc64-ps3-elf/4.7.0/../../../../powerpc64-ps3-elf/lib/libc.a(lib_a-gdtoa-hexnan.o)
 .debug_abbrev  0x0000000000004e7e      0x12d /usr/local/ps3dev/ppu/lib/gcc/powerpc64-ps3-elf/4.7.0/../../../../powerpc64-ps3-elf/lib/libc.a(lib_a-lock_internal.o)
 .debug_abbrev  0x0000000000004fab       0xad /usr/local/ps3dev/ppu/lib/gcc/powerpc64-ps3-elf/4.7.0/../../../../powerpc64-ps3-elf/lib/libc.a(lib_a-memchr.o)
 .debug_abbrev  0x0000000000005058       0xad /usr/local/ps3dev/ppu/lib/gcc/powerpc64-ps3-elf/4.7.0/../../../../powerpc64-ps3-elf/lib/libc.a(lib_a-memcpy.o)
 .debug_abbrev  0x0000000000005105      0x35c /usr/local/ps3dev/ppu/lib/gcc/powerpc64-ps3-elf/4.7.0/../../../../powerpc64-ps3-elf/lib/libc.a(lib_a-mprec.o)
 .debug_abbrev  0x0000000000005461      0x241 /usr/local/ps3dev/ppu/lib/gcc/powerpc64-ps3-elf/4.7.0/../../../../powerpc64-ps3-elf/lib/libc.a(lib_a-reallocr.o)
 .debug_abbrev  0x00000000000056a2       0x83 /usr/local/ps3dev/ppu/lib/gcc/powerpc64-ps3-elf/4.7.0/../../../../powerpc64-ps3-elf/lib/libc.a(lib_a-strncmp.o)
 .debug_abbrev  0x0000000000005725      0x2e1 /usr/local/ps3dev/ppu/lib/gcc/powerpc64-ps3-elf/4.7.0/../../../../powerpc64-ps3-elf/lib/libc.a(lib_a-svfiprintf.o)
 .debug_abbrev  0x0000000000005a06       0x97 /usr/local/ps3dev/ppu/lib/gcc/powerpc64-ps3-elf/4.7.0/../../../../powerpc64-ps3-elf/lib/libc.a(lib_a-abort.o)
 .debug_abbrev  0x0000000000005a9d      0x204 /usr/local/ps3dev/ppu/lib/gcc/powerpc64-ps3-elf/4.7.0/../../../../powerpc64-ps3-elf/lib/libc.a(lib_a-callocr.o)
 .debug_abbrev  0x0000000000005ca1      0x263 /usr/local/ps3dev/ppu/lib/gcc/powerpc64-ps3-elf/4.7.0/../../../../powerpc64-ps3-elf/lib/libc.a(lib_a-fclose.o)
 .debug_abbrev  0x0000000000005f04       0xad /usr/local/ps3dev/ppu/lib/gcc/powerpc64-ps3-elf/4.7.0/../../../../powerpc64-ps3-elf/lib/libc.a(lib_a-memmove.o)
 .debug_abbrev  0x0000000000005fb1      0x2a8 /usr/local/ps3dev/ppu/lib/gcc/powerpc64-ps3-elf/4.7.0/../../../../powerpc64-ps3-elf/lib/libc.a(lib_a-signal.o)
 .debug_abbrev  0x0000000000006259      0x1e2 /usr/local/ps3dev/ppu/lib/gcc/powerpc64-ps3-elf/4.7.0/../../../../powerpc64-ps3-elf/lib/libsysbase.a(close.o)
 .debug_abbrev  0x000000000000643b      0x1f1 /usr/local/ps3dev/ppu/lib/gcc/powerpc64-ps3-elf/4.7.0/../../../../powerpc64-ps3-elf/lib/libsysbase.a(sbrk.o)
 .debug_abbrev  0x000000000000662c      0x1cb /usr/local/ps3dev/ppu/lib/gcc/powerpc64-ps3-elf/4.7.0/../../../../powerpc64-ps3-elf/lib/libsysbase.a(_exit.o)
 .debug_abbrev  0x00000000000067f7      0x1e2 /usr/local/ps3dev/ppu/lib/gcc/powerpc64-ps3-elf/4.7.0/../../../../powerpc64-ps3-elf/lib/libsysbase.a(lseek.o)
 .debug_abbrev  0x00000000000069d9      0x1e2 /usr/local/ps3dev/ppu/lib/gcc/powerpc64-ps3-elf/4.7.0/../../../../powerpc64-ps3-elf/lib/libsysbase.a(read.o)
 .debug_abbrev  0x0000000000006bbb      0x1e2 /usr/local/ps3dev/ppu/lib/gcc/powerpc64-ps3-elf/4.7.0/../../../../powerpc64-ps3-elf/lib/libsysbase.a(write.o)
 .debug_abbrev  0x0000000000006d9d      0x20f /usr/local/ps3dev/ppu/lib/gcc/powerpc64-ps3-elf/4.7.0/../../../../powerpc64-ps3-elf/lib/libsysbase.a(lock.o)
 .debug_abbrev  0x0000000000006fac      0x1e2 /usr/local/ps3dev/ppu/lib/gcc/powerpc64-ps3-elf/4.7.0/../../../../powerpc64-ps3-elf/lib/libsysbase.a(getpid.o)
 .debug_abbrev  0x000000000000718e      0x18d /usr/local/ps3dev/ppu/lib/gcc/powerpc64-ps3-elf/4.7.0/../../../../powerpc64-ps3-elf/lib/libsysbase.a(kill.o)

.debug_line     0x0000000000000000     0xb61c
 *(.debug_line)
 .debug_line    0x0000000000000000      0x22d /usr/local/ps3dev/ppu/lib/gcc/powerpc64-ps3-elf/4.7.0/../../../../powerpc64-ps3-elf/lib/libsysbase.a(syscalls.o)
 .debug_line    0x000000000000022d      0x21c /usr/local/ps3dev/ppu/lib/gcc/powerpc64-ps3-elf/4.7.0/../../../../powerpc64-ps3-elf/lib/libc.a(lib_a-errno.o)
 .debug_line    0x0000000000000449      0x239 /usr/local/ps3dev/ppu/lib/gcc/powerpc64-ps3-elf/4.7.0/../../../../powerpc64-ps3-elf/lib/libc.a(lib_a-exit.o)
 .debug_line    0x0000000000000682      0x1c7 /usr/local/ps3dev/ppu/lib/gcc/powerpc64-ps3-elf/4.7.0/../../../../powerpc64-ps3-elf/lib/libc.a(lib_a-getreent.o)
 .debug_line    0x0000000000000849      0x1fd /usr/local/ps3dev/ppu/lib/gcc/powerpc64-ps3-elf/4.7.0/../../../../powerpc64-ps3-elf/lib/libc.a(lib_a-impure.o)
 .debug_line    0x0000000000000a46      0x236 /usr/local/ps3dev/ppu/lib/gcc/powerpc64-ps3-elf/4.7.0/../../../../powerpc64-ps3-elf/lib/libc.a(lib_a-malloc.o)
 .debug_line    0x0000000000000c7c      0x492 /usr/local/ps3dev/ppu/lib/gcc/powerpc64-ps3-elf/4.7.0/../../../../powerpc64-ps3-elf/lib/libc.a(lib_a-mallocr.o)
 .debug_line    0x000000000000110e      0x16b /usr/local/ps3dev/ppu/lib/gcc/powerpc64-ps3-elf/4.7.0/../../../../powerpc64-ps3-elf/lib/libc.a(lib_a-memset.o)
 .debug_line    0x0000000000001279      0x22b /usr/local/ps3dev/ppu/lib/gcc/powerpc64-ps3-elf/4.7.0/../../../../powerpc64-ps3-elf/lib/libc.a(lib_a-mlock.o)
 .debug_line    0x00000000000014a4      0x295 /usr/local/ps3dev/ppu/lib/gcc/powerpc64-ps3-elf/4.7.0/../../../../powerpc64-ps3-elf/lib/libc.a(lib_a-sscanf.o)
 .debug_line    0x0000000000001739      0x2be /usr/local/ps3dev/ppu/lib/gcc/powerpc64-ps3-elf/4.7.0/../../../../powerpc64-ps3-elf/lib/libc.a(lib_a-stdio.o)
 .debug_line    0x00000000000019f7      0x10e /usr/local/ps3dev/ppu/lib/gcc/powerpc64-ps3-elf/4.7.0/../../../../powerpc64-ps3-elf/lib/libc.a(lib_a-strlen.o)
 .debug_line    0x0000000000001b05      0x146 /usr/local/ps3dev/ppu/lib/gcc/powerpc64-ps3-elf/4.7.0/../../../../powerpc64-ps3-elf/lib/libc.a(lib_a-strncpy.o)
 .debug_line    0x0000000000001c4b      0x73d /usr/local/ps3dev/ppu/lib/gcc/powerpc64-ps3-elf/4.7.0/../../../../powerpc64-ps3-elf/lib/libc.a(lib_a-svfscanf.o)
 .debug_line    0x0000000000002388      0x295 /usr/local/ps3dev/ppu/lib/gcc/powerpc64-ps3-elf/4.7.0/../../../../powerpc64-ps3-elf/lib/libc.a(lib_a-__call_atexit.o)
 .debug_line    0x000000000000261d       0x62 /usr/local/ps3dev/ppu/lib/gcc/powerpc64-ps3-elf/4.7.0/../../../../powerpc64-ps3-elf/lib/libc.a(lib_a-ctype_.o)
 .debug_line    0x000000000000267f      0x32b /usr/local/ps3dev/ppu/lib/gcc/powerpc64-ps3-elf/4.7.0/../../../../powerpc64-ps3-elf/lib/libc.a(lib_a-freer.o)
 .debug_line    0x00000000000029aa      0x107 /usr/local/ps3dev/ppu/lib/gcc/powerpc64-ps3-elf/4.7.0/../../../../powerpc64-ps3-elf/lib/libc.a(lib_a-iswspace.o)
 .debug_line    0x0000000000002ab1      0x300 /usr/local/ps3dev/ppu/lib/gcc/powerpc64-ps3-elf/4.7.0/../../../../powerpc64-ps3-elf/lib/libc.a(lib_a-locale.o)
 .debug_line    0x0000000000002db1      0x159 /usr/local/ps3dev/ppu/lib/gcc/powerpc64-ps3-elf/4.7.0/../../../../powerpc64-ps3-elf/lib/libc.a(lib_a-lock_recursive.o)
 .debug_line    0x0000000000002f0a      0x280 /usr/local/ps3dev/ppu/lib/gcc/powerpc64-ps3-elf/4.7.0/../../../../powerpc64-ps3-elf/lib/libc.a(lib_a-mbrtowc.o)
 .debug_line    0x000000000000318a      0x261 /usr/local/ps3dev/ppu/lib/gcc/powerpc64-ps3-elf/4.7.0/../../../../powerpc64-ps3-elf/lib/libc.a(lib_a-mbtowc_r.o)
 .debug_line    0x00000000000033eb       0xf0 /usr/local/ps3dev/ppu/lib/gcc/powerpc64-ps3-elf/4.7.0/../../../../powerpc64-ps3-elf/lib/libc.a(lib_a-sccl.o)
 .debug_line    0x00000000000034db       0xa2 /usr/local/ps3dev/ppu/lib/gcc/powerpc64-ps3-elf/4.7.0/../../../../powerpc64-ps3-elf/lib/libc.a(lib_a-sf_nan.o)
 .debug_line    0x000000000000357d      0x15f /usr/local/ps3dev/ppu/lib/gcc/powerpc64-ps3-elf/4.7.0/../../../../powerpc64-ps3-elf/lib/libc.a(lib_a-s_fpclassify.o)
 .debug_line    0x00000000000036dc      0x288 /usr/local/ps3dev/ppu/lib/gcc/powerpc64-ps3-elf/4.7.0/../../../../powerpc64-ps3-elf/lib/libc.a(lib_a-sprintf.o)
 .debug_line    0x0000000000003964       0xc8 /usr/local/ps3dev/ppu/lib/gcc/powerpc64-ps3-elf/4.7.0/../../../../powerpc64-ps3-elf/lib/libc.a(lib_a-strcmp.o)
 .debug_line    0x0000000000003a2c      0x71b /usr/local/ps3dev/ppu/lib/gcc/powerpc64-ps3-elf/4.7.0/../../../../powerpc64-ps3-elf/lib/libc.a(lib_a-strtod.o)
 .debug_line    0x0000000000004147      0x2c5 /usr/local/ps3dev/ppu/lib/gcc/powerpc64-ps3-elf/4.7.0/../../../../powerpc64-ps3-elf/lib/libc.a(lib_a-strtoll_r.o)
 .debug_line    0x000000000000440c      0x2dc /usr/local/ps3dev/ppu/lib/gcc/powerpc64-ps3-elf/4.7.0/../../../../powerpc64-ps3-elf/lib/libc.a(lib_a-strtol.o)
 .debug_line    0x00000000000046e8      0x2ae /usr/local/ps3dev/ppu/lib/gcc/powerpc64-ps3-elf/4.7.0/../../../../powerpc64-ps3-elf/lib/libc.a(lib_a-strtoull_r.o)
 .debug_line    0x0000000000004996      0x2c4 /usr/local/ps3dev/ppu/lib/gcc/powerpc64-ps3-elf/4.7.0/../../../../powerpc64-ps3-elf/lib/libc.a(lib_a-strtoul.o)
 .debug_line    0x0000000000004c5a      0x6a5 /usr/local/ps3dev/ppu/lib/gcc/powerpc64-ps3-elf/4.7.0/../../../../powerpc64-ps3-elf/lib/libc.a(lib_a-svfiscanf.o)
 .debug_line    0x00000000000052ff      0xa49 /usr/local/ps3dev/ppu/lib/gcc/powerpc64-ps3-elf/4.7.0/../../../../powerpc64-ps3-elf/lib/libc.a(lib_a-svfprintf.o)
 .debug_line    0x0000000000005d48      0x343 /usr/local/ps3dev/ppu/lib/gcc/powerpc64-ps3-elf/4.7.0/../../../../powerpc64-ps3-elf/lib/libc.a(lib_a-ungetc.o)
 .debug_line    0x000000000000608b      0x26c /usr/local/ps3dev/ppu/lib/gcc/powerpc64-ps3-elf/4.7.0/../../../../powerpc64-ps3-elf/lib/libc.a(lib_a-__atexit.o)
 .debug_line    0x00000000000062f7      0x826 /usr/local/ps3dev/ppu/lib/gcc/powerpc64-ps3-elf/4.7.0/../../../../powerpc64-ps3-elf/lib/libc.a(lib_a-dtoa.o)
 .debug_line    0x0000000000006b1d      0x399 /usr/local/ps3dev/ppu/lib/gcc/powerpc64-ps3-elf/4.7.0/../../../../powerpc64-ps3-elf/lib/libc.a(lib_a-fflush.o)
 .debug_line    0x0000000000006eb6      0x41e /usr/local/ps3dev/ppu/lib/gcc/powerpc64-ps3-elf/4.7.0/../../../../powerpc64-ps3-elf/lib/libc.a(lib_a-findfp.o)
 .debug_line    0x00000000000072d4      0x287 /usr/local/ps3dev/ppu/lib/gcc/powerpc64-ps3-elf/4.7.0/../../../../powerpc64-ps3-elf/lib/libc.a(lib_a-fwalk.o)
 .debug_line    0x000000000000755b      0x4b4 /usr/local/ps3dev/ppu/lib/gcc/powerpc64-ps3-elf/4.7.0/../../../../powerpc64-ps3-elf/lib/libc.a(lib_a-gdtoa-gethex.o)
 .debug_line    0x0000000000007a0f      0x177 /usr/local/ps3dev/ppu/lib/gcc/powerpc64-ps3-elf/4.7.0/../../../../powerpc64-ps3-elf/lib/libc.a(lib_a-gdtoa-hexnan.o)
 .debug_line    0x0000000000007b86      0x128 /usr/local/ps3dev/ppu/lib/gcc/powerpc64-ps3-elf/4.7.0/../../../../powerpc64-ps3-elf/lib/libc.a(lib_a-lock_internal.o)
 .debug_line    0x0000000000007cae      0x133 /usr/local/ps3dev/ppu/lib/gcc/powerpc64-ps3-elf/4.7.0/../../../../powerpc64-ps3-elf/lib/libc.a(lib_a-memchr.o)
 .debug_line    0x0000000000007de1      0x170 /usr/local/ps3dev/ppu/lib/gcc/powerpc64-ps3-elf/4.7.0/../../../../powerpc64-ps3-elf/lib/libc.a(lib_a-memcpy.o)
 .debug_line    0x0000000000007f51      0x96a /usr/local/ps3dev/ppu/lib/gcc/powerpc64-ps3-elf/4.7.0/../../../../powerpc64-ps3-elf/lib/libc.a(lib_a-mprec.o)
 .debug_line    0x00000000000088bb      0x3cb /usr/local/ps3dev/ppu/lib/gcc/powerpc64-ps3-elf/4.7.0/../../../../powerpc64-ps3-elf/lib/libc.a(lib_a-reallocr.o)
 .debug_line    0x0000000000008c86      0x185 /usr/local/ps3dev/ppu/lib/gcc/powerpc64-ps3-elf/4.7.0/../../../../powerpc64-ps3-elf/lib/libc.a(lib_a-strncmp.o)
 .debug_line    0x0000000000008e0b      0x70f /usr/local/ps3dev/ppu/lib/gcc/powerpc64-ps3-elf/4.7.0/../../../../powerpc64-ps3-elf/lib/libc.a(lib_a-svfiprintf.o)
 .debug_line    0x000000000000951a       0xff /usr/local/ps3dev/ppu/lib/gcc/powerpc64-ps3-elf/4.7.0/../../../../powerpc64-ps3-elf/lib/libc.a(lib_a-abort.o)
 .debug_line    0x0000000000009619      0x24b /usr/local/ps3dev/ppu/lib/gcc/powerpc64-ps3-elf/4.7.0/../../../../powerpc64-ps3-elf/lib/libc.a(lib_a-callocr.o)
 .debug_line    0x0000000000009864      0x2a8 /usr/local/ps3dev/ppu/lib/gcc/powerpc64-ps3-elf/4.7.0/../../../../powerpc64-ps3-elf/lib/libc.a(lib_a-fclose.o)
 .debug_line    0x0000000000009b0c      0x18d /usr/local/ps3dev/ppu/lib/gcc/powerpc64-ps3-elf/4.7.0/../../../../powerpc64-ps3-elf/lib/libc.a(lib_a-memmove.o)
 .debug_line    0x0000000000009c99      0x352 /usr/local/ps3dev/ppu/lib/gcc/powerpc64-ps3-elf/4.7.0/../../../../powerpc64-ps3-elf/lib/libc.a(lib_a-signal.o)
 .debug_line    0x0000000000009feb      0x275 /usr/local/ps3dev/ppu/lib/gcc/powerpc64-ps3-elf/4.7.0/../../../../powerpc64-ps3-elf/lib/libsysbase.a(close.o)
 .debug_line    0x000000000000a260      0x274 /usr/local/ps3dev/ppu/lib/gcc/powerpc64-ps3-elf/4.7.0/../../../../powerpc64-ps3-elf/lib/libsysbase.a(sbrk.o)
 .debug_line    0x000000000000a4d4      0x27b /usr/local/ps3dev/ppu/lib/gcc/powerpc64-ps3-elf/4.7.0/../../../../powerpc64-ps3-elf/lib/libsysbase.a(_exit.o)
 .debug_line    0x000000000000a74f      0x279 /usr/local/ps3dev/ppu/lib/gcc/powerpc64-ps3-elf/4.7.0/../../../../powerpc64-ps3-elf/lib/libsysbase.a(lseek.o)
 .debug_line    0x000000000000a9c8      0x278 /usr/local/ps3dev/ppu/lib/gcc/powerpc64-ps3-elf/4.7.0/../../../../powerpc64-ps3-elf/lib/libsysbase.a(read.o)
 .debug_line    0x000000000000ac40      0x279 /usr/local/ps3dev/ppu/lib/gcc/powerpc64-ps3-elf/4.7.0/../../../../powerpc64-ps3-elf/lib/libsysbase.a(write.o)
 .debug_line    0x000000000000aeb9      0x2de /usr/local/ps3dev/ppu/lib/gcc/powerpc64-ps3-elf/4.7.0/../../../../powerpc64-ps3-elf/lib/libsysbase.a(lock.o)
 .debug_line    0x000000000000b197      0x276 /usr/local/ps3dev/ppu/lib/gcc/powerpc64-ps3-elf/4.7.0/../../../../powerpc64-ps3-elf/lib/libsysbase.a(getpid.o)
 .debug_line    0x000000000000b40d      0x20f /usr/local/ps3dev/ppu/lib/gcc/powerpc64-ps3-elf/4.7.0/../../../../powerpc64-ps3-elf/lib/libsysbase.a(kill.o)

.debug_frame    0x0000000000000000     0x20e0
 *(.debug_frame)
 .debug_frame   0x0000000000000000       0x38 /usr/local/ps3dev/ppu/lib/gcc/powerpc64-ps3-elf/4.7.0/../../../../powerpc64-ps3-elf/lib/libc.a(lib_a-errno.o)
 .debug_frame   0x0000000000000038       0x38 /usr/local/ps3dev/ppu/lib/gcc/powerpc64-ps3-elf/4.7.0/../../../../powerpc64-ps3-elf/lib/libc.a(lib_a-exit.o)
 .debug_frame   0x0000000000000070       0x50 /usr/local/ps3dev/ppu/lib/gcc/powerpc64-ps3-elf/4.7.0/../../../../powerpc64-ps3-elf/lib/libc.a(lib_a-getreent.o)
 .debug_frame   0x00000000000000c0       0x70 /usr/local/ps3dev/ppu/lib/gcc/powerpc64-ps3-elf/4.7.0/../../../../powerpc64-ps3-elf/lib/libc.a(lib_a-malloc.o)
 .debug_frame   0x0000000000000130       0x98 /usr/local/ps3dev/ppu/lib/gcc/powerpc64-ps3-elf/4.7.0/../../../../powerpc64-ps3-elf/lib/libc.a(lib_a-mallocr.o)
 .debug_frame   0x00000000000001c8       0x28 /usr/local/ps3dev/ppu/lib/gcc/powerpc64-ps3-elf/4.7.0/../../../../powerpc64-ps3-elf/lib/libc.a(lib_a-memset.o)
 .debug_frame   0x00000000000001f0       0x60 /usr/local/ps3dev/ppu/lib/gcc/powerpc64-ps3-elf/4.7.0/../../../../powerpc64-ps3-elf/lib/libc.a(lib_a-mlock.o)
 .debug_frame   0x0000000000000250       0x70 /usr/local/ps3dev/ppu/lib/gcc/powerpc64-ps3-elf/4.7.0/../../../../powerpc64-ps3-elf/lib/libc.a(lib_a-sscanf.o)
 .debug_frame   0x00000000000002c0       0xf8 /usr/local/ps3dev/ppu/lib/gcc/powerpc64-ps3-elf/4.7.0/../../../../powerpc64-ps3-elf/lib/libc.a(lib_a-stdio.o)
 .debug_frame   0x00000000000003b8       0x28 /usr/local/ps3dev/ppu/lib/gcc/powerpc64-ps3-elf/4.7.0/../../../../powerpc64-ps3-elf/lib/libc.a(lib_a-strlen.o)
 .debug_frame   0x00000000000003e0       0x28 /usr/local/ps3dev/ppu/lib/gcc/powerpc64-ps3-elf/4.7.0/../../../../powerpc64-ps3-elf/lib/libc.a(lib_a-strncpy.o)
 .debug_frame   0x0000000000000408       0x80 /usr/local/ps3dev/ppu/lib/gcc/powerpc64-ps3-elf/4.7.0/../../../../powerpc64-ps3-elf/lib/libc.a(lib_a-svfscanf.o)
 .debug_frame   0x0000000000000488       0x70 /usr/local/ps3dev/ppu/lib/gcc/powerpc64-ps3-elf/4.7.0/../../../../powerpc64-ps3-elf/lib/libc.a(lib_a-__call_atexit.o)
 .debug_frame   0x00000000000004f8       0x90 /usr/local/ps3dev/ppu/lib/gcc/powerpc64-ps3-elf/4.7.0/../../../../powerpc64-ps3-elf/lib/libc.a(lib_a-freer.o)
 .debug_frame   0x0000000000000588       0x28 /usr/local/ps3dev/ppu/lib/gcc/powerpc64-ps3-elf/4.7.0/../../../../powerpc64-ps3-elf/lib/libc.a(lib_a-iswspace.o)
 .debug_frame   0x00000000000005b0      0x120 /usr/local/ps3dev/ppu/lib/gcc/powerpc64-ps3-elf/4.7.0/../../../../powerpc64-ps3-elf/lib/libc.a(lib_a-locale.o)
 .debug_frame   0x00000000000006d0       0xf0 /usr/local/ps3dev/ppu/lib/gcc/powerpc64-ps3-elf/4.7.0/../../../../powerpc64-ps3-elf/lib/libc.a(lib_a-lock_recursive.o)
 .debug_frame   0x00000000000007c0       0x98 /usr/local/ps3dev/ppu/lib/gcc/powerpc64-ps3-elf/4.7.0/../../../../powerpc64-ps3-elf/lib/libc.a(lib_a-mbrtowc.o)
 .debug_frame   0x0000000000000858       0x58 /usr/local/ps3dev/ppu/lib/gcc/powerpc64-ps3-elf/4.7.0/../../../../powerpc64-ps3-elf/lib/libc.a(lib_a-mbtowc_r.o)
 .debug_frame   0x00000000000008b0       0x28 /usr/local/ps3dev/ppu/lib/gcc/powerpc64-ps3-elf/4.7.0/../../../../powerpc64-ps3-elf/lib/libc.a(lib_a-sccl.o)
 .debug_frame   0x00000000000008d8       0x28 /usr/local/ps3dev/ppu/lib/gcc/powerpc64-ps3-elf/4.7.0/../../../../powerpc64-ps3-elf/lib/libc.a(lib_a-sf_nan.o)
 .debug_frame   0x0000000000000900       0x28 /usr/local/ps3dev/ppu/lib/gcc/powerpc64-ps3-elf/4.7.0/../../../../powerpc64-ps3-elf/lib/libc.a(lib_a-s_fpclassify.o)
 .debug_frame   0x0000000000000928       0x68 /usr/local/ps3dev/ppu/lib/gcc/powerpc64-ps3-elf/4.7.0/../../../../powerpc64-ps3-elf/lib/libc.a(lib_a-sprintf.o)
 .debug_frame   0x0000000000000990       0x28 /usr/local/ps3dev/ppu/lib/gcc/powerpc64-ps3-elf/4.7.0/../../../../powerpc64-ps3-elf/lib/libc.a(lib_a-strcmp.o)
 .debug_frame   0x00000000000009b8      0x100 /usr/local/ps3dev/ppu/lib/gcc/powerpc64-ps3-elf/4.7.0/../../../../powerpc64-ps3-elf/lib/libc.a(lib_a-strtod.o)
 .debug_frame   0x0000000000000ab8       0x40 /usr/local/ps3dev/ppu/lib/gcc/powerpc64-ps3-elf/4.7.0/../../../../powerpc64-ps3-elf/lib/libc.a(lib_a-strtoll_r.o)
 .debug_frame   0x0000000000000af8       0x78 /usr/local/ps3dev/ppu/lib/gcc/powerpc64-ps3-elf/4.7.0/../../../../powerpc64-ps3-elf/lib/libc.a(lib_a-strtol.o)
 .debug_frame   0x0000000000000b70       0x40 /usr/local/ps3dev/ppu/lib/gcc/powerpc64-ps3-elf/4.7.0/../../../../powerpc64-ps3-elf/lib/libc.a(lib_a-strtoull_r.o)
 .debug_frame   0x0000000000000bb0       0x78 /usr/local/ps3dev/ppu/lib/gcc/powerpc64-ps3-elf/4.7.0/../../../../powerpc64-ps3-elf/lib/libc.a(lib_a-strtoul.o)
 .debug_frame   0x0000000000000c28      0x150 /usr/local/ps3dev/ppu/lib/gcc/powerpc64-ps3-elf/4.7.0/../../../../powerpc64-ps3-elf/lib/libc.a(lib_a-svfiscanf.o)
 .debug_frame   0x0000000000000d78       0x88 /usr/local/ps3dev/ppu/lib/gcc/powerpc64-ps3-elf/4.7.0/../../../../powerpc64-ps3-elf/lib/libc.a(lib_a-svfprintf.o)
 .debug_frame   0x0000000000000e00       0xe0 /usr/local/ps3dev/ppu/lib/gcc/powerpc64-ps3-elf/4.7.0/../../../../powerpc64-ps3-elf/lib/libc.a(lib_a-ungetc.o)
 .debug_frame   0x0000000000000ee0       0x68 /usr/local/ps3dev/ppu/lib/gcc/powerpc64-ps3-elf/4.7.0/../../../../powerpc64-ps3-elf/lib/libc.a(lib_a-__atexit.o)
 .debug_frame   0x0000000000000f48       0xc0 /usr/local/ps3dev/ppu/lib/gcc/powerpc64-ps3-elf/4.7.0/../../../../powerpc64-ps3-elf/lib/libc.a(lib_a-dtoa.o)
 .debug_frame   0x0000000000001008       0xe8 /usr/local/ps3dev/ppu/lib/gcc/powerpc64-ps3-elf/4.7.0/../../../../powerpc64-ps3-elf/lib/libc.a(lib_a-fflush.o)
 .debug_frame   0x00000000000010f0      0x258 /usr/local/ps3dev/ppu/lib/gcc/powerpc64-ps3-elf/4.7.0/../../../../powerpc64-ps3-elf/lib/libc.a(lib_a-findfp.o)
 .debug_frame   0x0000000000001348       0xa8 /usr/local/ps3dev/ppu/lib/gcc/powerpc64-ps3-elf/4.7.0/../../../../powerpc64-ps3-elf/lib/libc.a(lib_a-fwalk.o)
 .debug_frame   0x00000000000013f0       0xa8 /usr/local/ps3dev/ppu/lib/gcc/powerpc64-ps3-elf/4.7.0/../../../../powerpc64-ps3-elf/lib/libc.a(lib_a-gdtoa-gethex.o)
 .debug_frame   0x0000000000001498       0x70 /usr/local/ps3dev/ppu/lib/gcc/powerpc64-ps3-elf/4.7.0/../../../../powerpc64-ps3-elf/lib/libc.a(lib_a-gdtoa-hexnan.o)
 .debug_frame   0x0000000000001508       0x70 /usr/local/ps3dev/ppu/lib/gcc/powerpc64-ps3-elf/4.7.0/../../../../powerpc64-ps3-elf/lib/libc.a(lib_a-lock_internal.o)
 .debug_frame   0x0000000000001578       0x28 /usr/local/ps3dev/ppu/lib/gcc/powerpc64-ps3-elf/4.7.0/../../../../powerpc64-ps3-elf/lib/libc.a(lib_a-memchr.o)
 .debug_frame   0x00000000000015a0       0x28 /usr/local/ps3dev/ppu/lib/gcc/powerpc64-ps3-elf/4.7.0/../../../../powerpc64-ps3-elf/lib/libc.a(lib_a-memcpy.o)
 .debug_frame   0x00000000000015c8      0x3c0 /usr/local/ps3dev/ppu/lib/gcc/powerpc64-ps3-elf/4.7.0/../../../../powerpc64-ps3-elf/lib/libc.a(lib_a-mprec.o)
 .debug_frame   0x0000000000001988       0x98 /usr/local/ps3dev/ppu/lib/gcc/powerpc64-ps3-elf/4.7.0/../../../../powerpc64-ps3-elf/lib/libc.a(lib_a-reallocr.o)
 .debug_frame   0x0000000000001a20       0x28 /usr/local/ps3dev/ppu/lib/gcc/powerpc64-ps3-elf/4.7.0/../../../../powerpc64-ps3-elf/lib/libc.a(lib_a-strncmp.o)
 .debug_frame   0x0000000000001a48       0xf8 /usr/local/ps3dev/ppu/lib/gcc/powerpc64-ps3-elf/4.7.0/../../../../powerpc64-ps3-elf/lib/libc.a(lib_a-svfiprintf.o)
 .debug_frame   0x0000000000001b40       0x30 /usr/local/ps3dev/ppu/lib/gcc/powerpc64-ps3-elf/4.7.0/../../../../powerpc64-ps3-elf/lib/libc.a(lib_a-abort.o)
 .debug_frame   0x0000000000001b70       0x48 /usr/local/ps3dev/ppu/lib/gcc/powerpc64-ps3-elf/4.7.0/../../../../powerpc64-ps3-elf/lib/libc.a(lib_a-callocr.o)
 .debug_frame   0x0000000000001bb8       0x98 /usr/local/ps3dev/ppu/lib/gcc/powerpc64-ps3-elf/4.7.0/../../../../powerpc64-ps3-elf/lib/libc.a(lib_a-fclose.o)
 .debug_frame   0x0000000000001c50       0x28 /usr/local/ps3dev/ppu/lib/gcc/powerpc64-ps3-elf/4.7.0/../../../../powerpc64-ps3-elf/lib/libc.a(lib_a-memmove.o)
 .debug_frame   0x0000000000001c78      0x1b0 /usr/local/ps3dev/ppu/lib/gcc/powerpc64-ps3-elf/4.7.0/../../../../powerpc64-ps3-elf/lib/libc.a(lib_a-signal.o)
 .debug_frame   0x0000000000001e28       0x38 /usr/local/ps3dev/ppu/lib/gcc/powerpc64-ps3-elf/4.7.0/../../../../powerpc64-ps3-elf/lib/libsysbase.a(close.o)
 .debug_frame   0x0000000000001e60       0x38 /usr/local/ps3dev/ppu/lib/gcc/powerpc64-ps3-elf/4.7.0/../../../../powerpc64-ps3-elf/lib/libsysbase.a(sbrk.o)
 .debug_frame   0x0000000000001e98       0x30 /usr/local/ps3dev/ppu/lib/gcc/powerpc64-ps3-elf/4.7.0/../../../../powerpc64-ps3-elf/lib/libsysbase.a(_exit.o)
 .debug_frame   0x0000000000001ec8       0x38 /usr/local/ps3dev/ppu/lib/gcc/powerpc64-ps3-elf/4.7.0/../../../../powerpc64-ps3-elf/lib/libsysbase.a(lseek.o)
 .debug_frame   0x0000000000001f00       0x38 /usr/local/ps3dev/ppu/lib/gcc/powerpc64-ps3-elf/4.7.0/../../../../powerpc64-ps3-elf/lib/libsysbase.a(read.o)
 .debug_frame   0x0000000000001f38       0x38 /usr/local/ps3dev/ppu/lib/gcc/powerpc64-ps3-elf/4.7.0/../../../../powerpc64-ps3-elf/lib/libsysbase.a(write.o)
 .debug_frame   0x0000000000001f70      0x110 /usr/local/ps3dev/ppu/lib/gcc/powerpc64-ps3-elf/4.7.0/../../../../powerpc64-ps3-elf/lib/libsysbase.a(lock.o)
 .debug_frame   0x0000000000002080       0x38 /usr/local/ps3dev/ppu/lib/gcc/powerpc64-ps3-elf/4.7.0/../../../../powerpc64-ps3-elf/lib/libsysbase.a(getpid.o)
 .debug_frame   0x00000000000020b8       0x28 /usr/local/ps3dev/ppu/lib/gcc/powerpc64-ps3-elf/4.7.0/../../../../powerpc64-ps3-elf/lib/libsysbase.a(kill.o)

.debug_str      0x0000000000000000     0x273a
 *(.debug_str)
 .debug_str     0x0000000000000000      0x89d /usr/local/ps3dev/ppu/lib/gcc/powerpc64-ps3-elf/4.7.0/../../../../powerpc64-ps3-elf/lib/libsysbase.a(syscalls.o)
                                        0x9c4 (size before relaxing)
 .debug_str     0x000000000000089d       0x90 /usr/local/ps3dev/ppu/lib/gcc/powerpc64-ps3-elf/4.7.0/../../../../powerpc64-ps3-elf/lib/libc.a(lib_a-errno.o)
                                        0x548 (size before relaxing)
 .debug_str     0x000000000000092d       0xad /usr/local/ps3dev/ppu/lib/gcc/powerpc64-ps3-elf/4.7.0/../../../../powerpc64-ps3-elf/lib/libc.a(lib_a-exit.o)
                                        0x56a (size before relaxing)
 .debug_str     0x00000000000009da       0x9f /usr/local/ps3dev/ppu/lib/gcc/powerpc64-ps3-elf/4.7.0/../../../../powerpc64-ps3-elf/lib/libc.a(lib_a-getreent.o)
                                        0x562 (size before relaxing)
 .debug_str     0x0000000000000a79       0x8a /usr/local/ps3dev/ppu/lib/gcc/powerpc64-ps3-elf/4.7.0/../../../../powerpc64-ps3-elf/lib/libc.a(lib_a-impure.o)
                                        0x561 (size before relaxing)
 .debug_str     0x0000000000000b03       0x49 /usr/local/ps3dev/ppu/lib/gcc/powerpc64-ps3-elf/4.7.0/../../../../powerpc64-ps3-elf/lib/libc.a(lib_a-malloc.o)
                                        0x574 (size before relaxing)
 .debug_str     0x0000000000000b4c      0x214 /usr/local/ps3dev/ppu/lib/gcc/powerpc64-ps3-elf/4.7.0/../../../../powerpc64-ps3-elf/lib/libc.a(lib_a-mallocr.o)
                                        0x770 (size before relaxing)
 .debug_str     0x0000000000000d60       0x94 /usr/local/ps3dev/ppu/lib/gcc/powerpc64-ps3-elf/4.7.0/../../../../powerpc64-ps3-elf/lib/libc.a(lib_a-memset.o)
                                        0x140 (size before relaxing)
 .debug_str     0x0000000000000df4       0x7b /usr/local/ps3dev/ppu/lib/gcc/powerpc64-ps3-elf/4.7.0/../../../../powerpc64-ps3-elf/lib/libc.a(lib_a-mlock.o)
                                        0x5a6 (size before relaxing)
 .debug_str     0x0000000000000e6f       0xc5 /usr/local/ps3dev/ppu/lib/gcc/powerpc64-ps3-elf/4.7.0/../../../../powerpc64-ps3-elf/lib/libc.a(lib_a-sscanf.o)
                                        0x59c (size before relaxing)
 .debug_str     0x0000000000000f34       0x80 /usr/local/ps3dev/ppu/lib/gcc/powerpc64-ps3-elf/4.7.0/../../../../powerpc64-ps3-elf/lib/libc.a(lib_a-stdio.o)
                                        0x5bb (size before relaxing)
 .debug_str     0x0000000000000fb4       0x2b /usr/local/ps3dev/ppu/lib/gcc/powerpc64-ps3-elf/4.7.0/../../../../powerpc64-ps3-elf/lib/libc.a(lib_a-strlen.o)
                                        0x13f (size before relaxing)
 .debug_str     0x0000000000000fdf       0x56 /usr/local/ps3dev/ppu/lib/gcc/powerpc64-ps3-elf/4.7.0/../../../../powerpc64-ps3-elf/lib/libc.a(lib_a-strncpy.o)
                                        0x156 (size before relaxing)
 .debug_str     0x0000000000001035      0x1d5 /usr/local/ps3dev/ppu/lib/gcc/powerpc64-ps3-elf/4.7.0/../../../../powerpc64-ps3-elf/lib/libc.a(lib_a-svfscanf.o)
                                        0x760 (size before relaxing)
 .debug_str     0x000000000000120a       0x4e /usr/local/ps3dev/ppu/lib/gcc/powerpc64-ps3-elf/4.7.0/../../../../powerpc64-ps3-elf/lib/libc.a(lib_a-__call_atexit.o)
                                        0x5ca (size before relaxing)
 .debug_str     0x0000000000001258       0x86 /usr/local/ps3dev/ppu/lib/gcc/powerpc64-ps3-elf/4.7.0/../../../../powerpc64-ps3-elf/lib/libc.a(lib_a-ctype_.o)
                                         0xae (size before relaxing)
 .debug_str     0x00000000000012de       0x34 /usr/local/ps3dev/ppu/lib/gcc/powerpc64-ps3-elf/4.7.0/../../../../powerpc64-ps3-elf/lib/libc.a(lib_a-freer.o)
                                        0x6ba (size before relaxing)
 .debug_str     0x0000000000001312       0x2c /usr/local/ps3dev/ppu/lib/gcc/powerpc64-ps3-elf/4.7.0/../../../../powerpc64-ps3-elf/lib/libc.a(lib_a-iswspace.o)
                                        0x13c (size before relaxing)
 .debug_str     0x000000000000133e      0x24e /usr/local/ps3dev/ppu/lib/gcc/powerpc64-ps3-elf/4.7.0/../../../../powerpc64-ps3-elf/lib/libc.a(lib_a-locale.o)
                                        0x7bd (size before relaxing)
 .debug_str     0x000000000000158c      0x14b /usr/local/ps3dev/ppu/lib/gcc/powerpc64-ps3-elf/4.7.0/../../../../powerpc64-ps3-elf/lib/libc.a(lib_a-lock_recursive.o)
                                        0x313 (size before relaxing)
 .debug_str     0x00000000000016d7       0x44 /usr/local/ps3dev/ppu/lib/gcc/powerpc64-ps3-elf/4.7.0/../../../../powerpc64-ps3-elf/lib/libc.a(lib_a-mbrtowc.o)
                                        0x591 (size before relaxing)
 .debug_str     0x000000000000171b       0x4c /usr/local/ps3dev/ppu/lib/gcc/powerpc64-ps3-elf/4.7.0/../../../../powerpc64-ps3-elf/lib/libc.a(lib_a-mbtowc_r.o)
                                        0x59a (size before relaxing)
 .debug_str     0x0000000000001767       0x31 /usr/local/ps3dev/ppu/lib/gcc/powerpc64-ps3-elf/4.7.0/../../../../powerpc64-ps3-elf/lib/libc.a(lib_a-sccl.o)
                                        0x131 (size before relaxing)
 .debug_str     0x0000000000001798       0x80 /usr/local/ps3dev/ppu/lib/gcc/powerpc64-ps3-elf/4.7.0/../../../../powerpc64-ps3-elf/lib/libc.a(lib_a-sf_nan.o)
                                        0x143 (size before relaxing)
 .debug_str     0x0000000000001818       0x5e /usr/local/ps3dev/ppu/lib/gcc/powerpc64-ps3-elf/4.7.0/../../../../powerpc64-ps3-elf/lib/libc.a(lib_a-s_fpclassify.o)
                                        0x17e (size before relaxing)
 .debug_str     0x0000000000001876       0x43 /usr/local/ps3dev/ppu/lib/gcc/powerpc64-ps3-elf/4.7.0/../../../../powerpc64-ps3-elf/lib/libc.a(lib_a-sprintf.o)
                                        0x590 (size before relaxing)
 .debug_str     0x00000000000018b9       0x2b /usr/local/ps3dev/ppu/lib/gcc/powerpc64-ps3-elf/4.7.0/../../../../powerpc64-ps3-elf/lib/libc.a(lib_a-strcmp.o)
                                        0x125 (size before relaxing)
 .debug_str     0x00000000000018e4      0x260 /usr/local/ps3dev/ppu/lib/gcc/powerpc64-ps3-elf/4.7.0/../../../../powerpc64-ps3-elf/lib/libc.a(lib_a-strtod.o)
                                        0x964 (size before relaxing)
 .debug_str     0x0000000000001b44       0x43 /usr/local/ps3dev/ppu/lib/gcc/powerpc64-ps3-elf/4.7.0/../../../../powerpc64-ps3-elf/lib/libc.a(lib_a-strtoll_r.o)
                                        0x578 (size before relaxing)
 .debug_str     0x0000000000001b87       0x32 /usr/local/ps3dev/ppu/lib/gcc/powerpc64-ps3-elf/4.7.0/../../../../powerpc64-ps3-elf/lib/libc.a(lib_a-strtol.o)
                                        0x586 (size before relaxing)
 .debug_str     0x0000000000001bb9       0x2f /usr/local/ps3dev/ppu/lib/gcc/powerpc64-ps3-elf/4.7.0/../../../../powerpc64-ps3-elf/lib/libc.a(lib_a-strtoull_r.o)
                                        0x57a (size before relaxing)
 .debug_str     0x0000000000001be8       0x3f /usr/local/ps3dev/ppu/lib/gcc/powerpc64-ps3-elf/4.7.0/../../../../powerpc64-ps3-elf/lib/libc.a(lib_a-strtoul.o)
                                        0x589 (size before relaxing)
 .debug_str     0x0000000000001c27       0x1f /usr/local/ps3dev/ppu/lib/gcc/powerpc64-ps3-elf/4.7.0/../../../../powerpc64-ps3-elf/lib/libc.a(lib_a-svfiscanf.o)
                                        0x703 (size before relaxing)
 .debug_str     0x0000000000001c46      0x172 /usr/local/ps3dev/ppu/lib/gcc/powerpc64-ps3-elf/4.7.0/../../../../powerpc64-ps3-elf/lib/libc.a(lib_a-svfprintf.o)
                                        0x8d9 (size before relaxing)
 .debug_str     0x0000000000001db8       0x58 /usr/local/ps3dev/ppu/lib/gcc/powerpc64-ps3-elf/4.7.0/../../../../powerpc64-ps3-elf/lib/libc.a(lib_a-ungetc.o)
                                        0x5d7 (size before relaxing)
 .debug_str     0x0000000000001e10       0x71 /usr/local/ps3dev/ppu/lib/gcc/powerpc64-ps3-elf/4.7.0/../../../../powerpc64-ps3-elf/lib/libc.a(lib_a-__atexit.o)
                                        0x5f3 (size before relaxing)
 .debug_str     0x0000000000001e81       0xd5 /usr/local/ps3dev/ppu/lib/gcc/powerpc64-ps3-elf/4.7.0/../../../../powerpc64-ps3-elf/lib/libc.a(lib_a-dtoa.o)
                                        0x6b3 (size before relaxing)
 .debug_str     0x0000000000001f56       0x5a /usr/local/ps3dev/ppu/lib/gcc/powerpc64-ps3-elf/4.7.0/../../../../powerpc64-ps3-elf/lib/libc.a(lib_a-fflush.o)
                                        0x5e6 (size before relaxing)
 .debug_str     0x0000000000001fb0      0x16c /usr/local/ps3dev/ppu/lib/gcc/powerpc64-ps3-elf/4.7.0/../../../../powerpc64-ps3-elf/lib/libc.a(lib_a-findfp.o)
                                        0x735 (size before relaxing)
 .debug_str     0x000000000000211c       0x38 /usr/local/ps3dev/ppu/lib/gcc/powerpc64-ps3-elf/4.7.0/../../../../powerpc64-ps3-elf/lib/libc.a(lib_a-fwalk.o)
                                        0x566 (size before relaxing)
 .debug_str     0x0000000000002154       0xde /usr/local/ps3dev/ppu/lib/gcc/powerpc64-ps3-elf/4.7.0/../../../../powerpc64-ps3-elf/lib/libc.a(lib_a-gdtoa-gethex.o)
                                        0x8ec (size before relaxing)
 .debug_str     0x0000000000002232       0x39 /usr/local/ps3dev/ppu/lib/gcc/powerpc64-ps3-elf/4.7.0/../../../../powerpc64-ps3-elf/lib/libc.a(lib_a-gdtoa-hexnan.o)
                                        0x269 (size before relaxing)
 .debug_str     0x000000000000226b       0x53 /usr/local/ps3dev/ppu/lib/gcc/powerpc64-ps3-elf/4.7.0/../../../../powerpc64-ps3-elf/lib/libc.a(lib_a-lock_internal.o)
                                        0x267 (size before relaxing)
 .debug_str     0x00000000000022be       0x39 /usr/local/ps3dev/ppu/lib/gcc/powerpc64-ps3-elf/4.7.0/../../../../powerpc64-ps3-elf/lib/libc.a(lib_a-memchr.o)
                                        0x146 (size before relaxing)
 .debug_str     0x00000000000022f7       0x30 /usr/local/ps3dev/ppu/lib/gcc/powerpc64-ps3-elf/4.7.0/../../../../powerpc64-ps3-elf/lib/libc.a(lib_a-memcpy.o)
                                        0x153 (size before relaxing)
 .debug_str     0x0000000000002327       0x6d /usr/local/ps3dev/ppu/lib/gcc/powerpc64-ps3-elf/4.7.0/../../../../powerpc64-ps3-elf/lib/libc.a(lib_a-mprec.o)
                                        0x66d (size before relaxing)
 .debug_str     0x0000000000002394       0x5e /usr/local/ps3dev/ppu/lib/gcc/powerpc64-ps3-elf/4.7.0/../../../../powerpc64-ps3-elf/lib/libc.a(lib_a-reallocr.o)
                                        0x642 (size before relaxing)
 .debug_str     0x00000000000023f2       0x2c /usr/local/ps3dev/ppu/lib/gcc/powerpc64-ps3-elf/4.7.0/../../../../powerpc64-ps3-elf/lib/libc.a(lib_a-strncmp.o)
                                        0x12e (size before relaxing)
 .debug_str     0x000000000000241e       0x15 /usr/local/ps3dev/ppu/lib/gcc/powerpc64-ps3-elf/4.7.0/../../../../powerpc64-ps3-elf/lib/libc.a(lib_a-svfiprintf.o)
                                        0x6dc (size before relaxing)
 .debug_str     0x0000000000002433       0x30 /usr/local/ps3dev/ppu/lib/gcc/powerpc64-ps3-elf/4.7.0/../../../../powerpc64-ps3-elf/lib/libc.a(lib_a-abort.o)
                                        0x12f (size before relaxing)
 .debug_str     0x0000000000002463        0xf /usr/local/ps3dev/ppu/lib/gcc/powerpc64-ps3-elf/4.7.0/../../../../powerpc64-ps3-elf/lib/libc.a(lib_a-callocr.o)
                                        0x59a (size before relaxing)
 .debug_str     0x0000000000002472       0x3b /usr/local/ps3dev/ppu/lib/gcc/powerpc64-ps3-elf/4.7.0/../../../../powerpc64-ps3-elf/lib/libc.a(lib_a-fclose.o)
                                        0x5f4 (size before relaxing)
 .debug_str     0x00000000000024ad       0x35 /usr/local/ps3dev/ppu/lib/gcc/powerpc64-ps3-elf/4.7.0/../../../../powerpc64-ps3-elf/lib/libc.a(lib_a-memmove.o)
                                        0x15f (size before relaxing)
 .debug_str     0x00000000000024e2       0xe6 /usr/local/ps3dev/ppu/lib/gcc/powerpc64-ps3-elf/4.7.0/../../../../powerpc64-ps3-elf/lib/libc.a(lib_a-signal.o)
                                        0x5d6 (size before relaxing)
 .debug_str     0x00000000000025c8       0x28 /usr/local/ps3dev/ppu/lib/gcc/powerpc64-ps3-elf/4.7.0/../../../../powerpc64-ps3-elf/lib/libsysbase.a(close.o)
                                        0x9ca (size before relaxing)
 .debug_str     0x00000000000025f0       0x2c /usr/local/ps3dev/ppu/lib/gcc/powerpc64-ps3-elf/4.7.0/../../../../powerpc64-ps3-elf/lib/libsysbase.a(sbrk.o)
                                        0x9cd (size before relaxing)
 .debug_str     0x000000000000261c       0x28 /usr/local/ps3dev/ppu/lib/gcc/powerpc64-ps3-elf/4.7.0/../../../../powerpc64-ps3-elf/lib/libsysbase.a(_exit.o)
                                        0x9c7 (size before relaxing)
 .debug_str     0x0000000000002644       0x28 /usr/local/ps3dev/ppu/lib/gcc/powerpc64-ps3-elf/4.7.0/../../../../powerpc64-ps3-elf/lib/libsysbase.a(lseek.o)
                                        0x9ca (size before relaxing)
 .debug_str     0x000000000000266c       0x27 /usr/local/ps3dev/ppu/lib/gcc/powerpc64-ps3-elf/4.7.0/../../../../powerpc64-ps3-elf/lib/libsysbase.a(read.o)
                                        0x9c8 (size before relaxing)
 .debug_str     0x0000000000002693       0x28 /usr/local/ps3dev/ppu/lib/gcc/powerpc64-ps3-elf/4.7.0/../../../../powerpc64-ps3-elf/lib/libsysbase.a(write.o)
                                        0x9ca (size before relaxing)
 .debug_str     0x00000000000026bb       0x2f /usr/local/ps3dev/ppu/lib/gcc/powerpc64-ps3-elf/4.7.0/../../../../powerpc64-ps3-elf/lib/libsysbase.a(lock.o)
                                        0xa3f (size before relaxing)
 .debug_str     0x00000000000026ea       0x29 /usr/local/ps3dev/ppu/lib/gcc/powerpc64-ps3-elf/4.7.0/../../../../powerpc64-ps3-elf/lib/libsysbase.a(getpid.o)
                                        0x9cc (size before relaxing)
 .debug_str     0x0000000000002713       0x27 /usr/local/ps3dev/ppu/lib/gcc/powerpc64-ps3-elf/4.7.0/../../../../powerpc64-ps3-elf/lib/libsysbase.a(kill.o)
                                        0x53d (size before relaxing)

.debug_loc      0x0000000000000000    0x24240
 *(.debug_loc)
 .debug_loc     0x0000000000000000       0x4d /usr/local/ps3dev/ppu/lib/gcc/powerpc64-ps3-elf/4.7.0/../../../../powerpc64-ps3-elf/lib/libc.a(lib_a-errno.o)
 .debug_loc     0x000000000000004d       0x72 /usr/local/ps3dev/ppu/lib/gcc/powerpc64-ps3-elf/4.7.0/../../../../powerpc64-ps3-elf/lib/libc.a(lib_a-exit.o)
 .debug_loc     0x00000000000000bf       0xd2 /usr/local/ps3dev/ppu/lib/gcc/powerpc64-ps3-elf/4.7.0/../../../../powerpc64-ps3-elf/lib/libc.a(lib_a-getreent.o)
 .debug_loc     0x0000000000000191      0x132 /usr/local/ps3dev/ppu/lib/gcc/powerpc64-ps3-elf/4.7.0/../../../../powerpc64-ps3-elf/lib/libc.a(lib_a-malloc.o)
 .debug_loc     0x00000000000002c3     0x1651 /usr/local/ps3dev/ppu/lib/gcc/powerpc64-ps3-elf/4.7.0/../../../../powerpc64-ps3-elf/lib/libc.a(lib_a-mallocr.o)
 .debug_loc     0x0000000000001914      0x2eb /usr/local/ps3dev/ppu/lib/gcc/powerpc64-ps3-elf/4.7.0/../../../../powerpc64-ps3-elf/lib/libc.a(lib_a-memset.o)
 .debug_loc     0x0000000000001bff      0x10c /usr/local/ps3dev/ppu/lib/gcc/powerpc64-ps3-elf/4.7.0/../../../../powerpc64-ps3-elf/lib/libc.a(lib_a-mlock.o)
 .debug_loc     0x0000000000001d0b      0x1dd /usr/local/ps3dev/ppu/lib/gcc/powerpc64-ps3-elf/4.7.0/../../../../powerpc64-ps3-elf/lib/libc.a(lib_a-sscanf.o)
 .debug_loc     0x0000000000001ee8      0x6c4 /usr/local/ps3dev/ppu/lib/gcc/powerpc64-ps3-elf/4.7.0/../../../../powerpc64-ps3-elf/lib/libc.a(lib_a-stdio.o)
 .debug_loc     0x00000000000025ac      0x121 /usr/local/ps3dev/ppu/lib/gcc/powerpc64-ps3-elf/4.7.0/../../../../powerpc64-ps3-elf/lib/libc.a(lib_a-strlen.o)
 .debug_loc     0x00000000000026cd      0x23b /usr/local/ps3dev/ppu/lib/gcc/powerpc64-ps3-elf/4.7.0/../../../../powerpc64-ps3-elf/lib/libc.a(lib_a-strncpy.o)
 .debug_loc     0x0000000000002908     0x224e /usr/local/ps3dev/ppu/lib/gcc/powerpc64-ps3-elf/4.7.0/../../../../powerpc64-ps3-elf/lib/libc.a(lib_a-svfscanf.o)
 .debug_loc     0x0000000000004b56      0x2fd /usr/local/ps3dev/ppu/lib/gcc/powerpc64-ps3-elf/4.7.0/../../../../powerpc64-ps3-elf/lib/libc.a(lib_a-__call_atexit.o)
 .debug_loc     0x0000000000004e53      0x967 /usr/local/ps3dev/ppu/lib/gcc/powerpc64-ps3-elf/4.7.0/../../../../powerpc64-ps3-elf/lib/libc.a(lib_a-freer.o)
 .debug_loc     0x00000000000057ba       0x62 /usr/local/ps3dev/ppu/lib/gcc/powerpc64-ps3-elf/4.7.0/../../../../powerpc64-ps3-elf/lib/libc.a(lib_a-iswspace.o)
 .debug_loc     0x000000000000581c      0x2c8 /usr/local/ps3dev/ppu/lib/gcc/powerpc64-ps3-elf/4.7.0/../../../../powerpc64-ps3-elf/lib/libc.a(lib_a-locale.o)
 .debug_loc     0x0000000000005ae4      0x2d7 /usr/local/ps3dev/ppu/lib/gcc/powerpc64-ps3-elf/4.7.0/../../../../powerpc64-ps3-elf/lib/libc.a(lib_a-lock_recursive.o)
 .debug_loc     0x0000000000005dbb      0x5e3 /usr/local/ps3dev/ppu/lib/gcc/powerpc64-ps3-elf/4.7.0/../../../../powerpc64-ps3-elf/lib/libc.a(lib_a-mbrtowc.o)
 .debug_loc     0x000000000000639e      0x251 /usr/local/ps3dev/ppu/lib/gcc/powerpc64-ps3-elf/4.7.0/../../../../powerpc64-ps3-elf/lib/libc.a(lib_a-mbtowc_r.o)
 .debug_loc     0x00000000000065ef      0x2ec /usr/local/ps3dev/ppu/lib/gcc/powerpc64-ps3-elf/4.7.0/../../../../powerpc64-ps3-elf/lib/libc.a(lib_a-sccl.o)
 .debug_loc     0x00000000000068db       0x23 /usr/local/ps3dev/ppu/lib/gcc/powerpc64-ps3-elf/4.7.0/../../../../powerpc64-ps3-elf/lib/libc.a(lib_a-s_fpclassify.o)
 .debug_loc     0x00000000000068fe      0x1dd /usr/local/ps3dev/ppu/lib/gcc/powerpc64-ps3-elf/4.7.0/../../../../powerpc64-ps3-elf/lib/libc.a(lib_a-sprintf.o)
 .debug_loc     0x0000000000006adb      0x1ae /usr/local/ps3dev/ppu/lib/gcc/powerpc64-ps3-elf/4.7.0/../../../../powerpc64-ps3-elf/lib/libc.a(lib_a-strcmp.o)
 .debug_loc     0x0000000000006c89     0x3b72 /usr/local/ps3dev/ppu/lib/gcc/powerpc64-ps3-elf/4.7.0/../../../../powerpc64-ps3-elf/lib/libc.a(lib_a-strtod.o)
 .debug_loc     0x000000000000a7fb      0x5e6 /usr/local/ps3dev/ppu/lib/gcc/powerpc64-ps3-elf/4.7.0/../../../../powerpc64-ps3-elf/lib/libc.a(lib_a-strtoll_r.o)
 .debug_loc     0x000000000000ade1      0x72a /usr/local/ps3dev/ppu/lib/gcc/powerpc64-ps3-elf/4.7.0/../../../../powerpc64-ps3-elf/lib/libc.a(lib_a-strtol.o)
 .debug_loc     0x000000000000b50b      0x4f1 /usr/local/ps3dev/ppu/lib/gcc/powerpc64-ps3-elf/4.7.0/../../../../powerpc64-ps3-elf/lib/libc.a(lib_a-strtoull_r.o)
 .debug_loc     0x000000000000b9fc      0x635 /usr/local/ps3dev/ppu/lib/gcc/powerpc64-ps3-elf/4.7.0/../../../../powerpc64-ps3-elf/lib/libc.a(lib_a-strtoul.o)
 .debug_loc     0x000000000000c031     0x2007 /usr/local/ps3dev/ppu/lib/gcc/powerpc64-ps3-elf/4.7.0/../../../../powerpc64-ps3-elf/lib/libc.a(lib_a-svfiscanf.o)
 .debug_loc     0x000000000000e038     0x3a40 /usr/local/ps3dev/ppu/lib/gcc/powerpc64-ps3-elf/4.7.0/../../../../powerpc64-ps3-elf/lib/libc.a(lib_a-svfprintf.o)
 .debug_loc     0x0000000000011a78      0x6ce /usr/local/ps3dev/ppu/lib/gcc/powerpc64-ps3-elf/4.7.0/../../../../powerpc64-ps3-elf/lib/libc.a(lib_a-ungetc.o)
 .debug_loc     0x0000000000012146      0x31a /usr/local/ps3dev/ppu/lib/gcc/powerpc64-ps3-elf/4.7.0/../../../../powerpc64-ps3-elf/lib/libc.a(lib_a-__atexit.o)
 .debug_loc     0x0000000000012460     0x3ddf /usr/local/ps3dev/ppu/lib/gcc/powerpc64-ps3-elf/4.7.0/../../../../powerpc64-ps3-elf/lib/libc.a(lib_a-dtoa.o)
 .debug_loc     0x000000000001623f      0x86d /usr/local/ps3dev/ppu/lib/gcc/powerpc64-ps3-elf/4.7.0/../../../../powerpc64-ps3-elf/lib/libc.a(lib_a-fflush.o)
 .debug_loc     0x0000000000016aac      0x879 /usr/local/ps3dev/ppu/lib/gcc/powerpc64-ps3-elf/4.7.0/../../../../powerpc64-ps3-elf/lib/libc.a(lib_a-findfp.o)
 .debug_loc     0x0000000000017325      0x5ca /usr/local/ps3dev/ppu/lib/gcc/powerpc64-ps3-elf/4.7.0/../../../../powerpc64-ps3-elf/lib/libc.a(lib_a-fwalk.o)
 .debug_loc     0x00000000000178ef     0x1c6a /usr/local/ps3dev/ppu/lib/gcc/powerpc64-ps3-elf/4.7.0/../../../../powerpc64-ps3-elf/lib/libc.a(lib_a-gdtoa-gethex.o)
 .debug_loc     0x0000000000019559      0x86a /usr/local/ps3dev/ppu/lib/gcc/powerpc64-ps3-elf/4.7.0/../../../../powerpc64-ps3-elf/lib/libc.a(lib_a-gdtoa-hexnan.o)
 .debug_loc     0x0000000000019dc3      0x123 /usr/local/ps3dev/ppu/lib/gcc/powerpc64-ps3-elf/4.7.0/../../../../powerpc64-ps3-elf/lib/libc.a(lib_a-lock_internal.o)
 .debug_loc     0x0000000000019ee6      0x2ba /usr/local/ps3dev/ppu/lib/gcc/powerpc64-ps3-elf/4.7.0/../../../../powerpc64-ps3-elf/lib/libc.a(lib_a-memchr.o)
 .debug_loc     0x000000000001a1a0      0x342 /usr/local/ps3dev/ppu/lib/gcc/powerpc64-ps3-elf/4.7.0/../../../../powerpc64-ps3-elf/lib/libc.a(lib_a-memcpy.o)
 .debug_loc     0x000000000001a4e2     0x3756 /usr/local/ps3dev/ppu/lib/gcc/powerpc64-ps3-elf/4.7.0/../../../../powerpc64-ps3-elf/lib/libc.a(lib_a-mprec.o)
 .debug_loc     0x000000000001dc38     0x2126 /usr/local/ps3dev/ppu/lib/gcc/powerpc64-ps3-elf/4.7.0/../../../../powerpc64-ps3-elf/lib/libc.a(lib_a-reallocr.o)
 .debug_loc     0x000000000001fd5e      0x347 /usr/local/ps3dev/ppu/lib/gcc/powerpc64-ps3-elf/4.7.0/../../../../powerpc64-ps3-elf/lib/libc.a(lib_a-strncmp.o)
 .debug_loc     0x00000000000200a5     0x208d /usr/local/ps3dev/ppu/lib/gcc/powerpc64-ps3-elf/4.7.0/../../../../powerpc64-ps3-elf/lib/libc.a(lib_a-svfiprintf.o)
 .debug_loc     0x0000000000022132       0x39 /usr/local/ps3dev/ppu/lib/gcc/powerpc64-ps3-elf/4.7.0/../../../../powerpc64-ps3-elf/lib/libc.a(lib_a-abort.o)
 .debug_loc     0x000000000002216b      0x3e5 /usr/local/ps3dev/ppu/lib/gcc/powerpc64-ps3-elf/4.7.0/../../../../powerpc64-ps3-elf/lib/libc.a(lib_a-callocr.o)
 .debug_loc     0x0000000000022550      0x367 /usr/local/ps3dev/ppu/lib/gcc/powerpc64-ps3-elf/4.7.0/../../../../powerpc64-ps3-elf/lib/libc.a(lib_a-fclose.o)
 .debug_loc     0x00000000000228b7      0x3b4 /usr/local/ps3dev/ppu/lib/gcc/powerpc64-ps3-elf/4.7.0/../../../../powerpc64-ps3-elf/lib/libc.a(lib_a-memmove.o)
 .debug_loc     0x0000000000022c6b      0x95b /usr/local/ps3dev/ppu/lib/gcc/powerpc64-ps3-elf/4.7.0/../../../../powerpc64-ps3-elf/lib/libc.a(lib_a-signal.o)
 .debug_loc     0x00000000000235c6       0xf8 /usr/local/ps3dev/ppu/lib/gcc/powerpc64-ps3-elf/4.7.0/../../../../powerpc64-ps3-elf/lib/libsysbase.a(close.o)
 .debug_loc     0x00000000000236be       0xf8 /usr/local/ps3dev/ppu/lib/gcc/powerpc64-ps3-elf/4.7.0/../../../../powerpc64-ps3-elf/lib/libsysbase.a(sbrk.o)
 .debug_loc     0x00000000000237b6       0x72 /usr/local/ps3dev/ppu/lib/gcc/powerpc64-ps3-elf/4.7.0/../../../../powerpc64-ps3-elf/lib/libsysbase.a(_exit.o)
 .debug_loc     0x0000000000023828      0x190 /usr/local/ps3dev/ppu/lib/gcc/powerpc64-ps3-elf/4.7.0/../../../../powerpc64-ps3-elf/lib/libsysbase.a(lseek.o)
 .debug_loc     0x00000000000239b8      0x190 /usr/local/ps3dev/ppu/lib/gcc/powerpc64-ps3-elf/4.7.0/../../../../powerpc64-ps3-elf/lib/libsysbase.a(read.o)
 .debug_loc     0x0000000000023b48      0x190 /usr/local/ps3dev/ppu/lib/gcc/powerpc64-ps3-elf/4.7.0/../../../../powerpc64-ps3-elf/lib/libsysbase.a(write.o)
 .debug_loc     0x0000000000023cd8      0x483 /usr/local/ps3dev/ppu/lib/gcc/powerpc64-ps3-elf/4.7.0/../../../../powerpc64-ps3-elf/lib/libsysbase.a(lock.o)
 .debug_loc     0x000000000002415b       0xac /usr/local/ps3dev/ppu/lib/gcc/powerpc64-ps3-elf/4.7.0/../../../../powerpc64-ps3-elf/lib/libsysbase.a(getpid.o)
 .debug_loc     0x0000000000024207       0x39 /usr/local/ps3dev/ppu/lib/gcc/powerpc64-ps3-elf/4.7.0/../../../../powerpc64-ps3-elf/lib/libsysbase.a(kill.o)

.debug_macinfo
 *(.debug_macinfo)

.debug_weaknames
 *(.debug_weaknames)

.debug_funcnames
 *(.debug_funcnames)

.debug_typenames
 *(.debug_typenames)

.debug_varnames
 *(.debug_varnames)

.debug_pubtypes
 *(.debug_pubtypes)

.debug_ranges   0x0000000000000000     0x1f00
 *(.debug_ranges)
 .debug_ranges  0x0000000000000000       0x20 /usr/local/ps3dev/ppu/lib/gcc/powerpc64-ps3-elf/4.7.0/../../../../powerpc64-ps3-elf/lib/libc.a(lib_a-errno.o)
 .debug_ranges  0x0000000000000020       0x20 /usr/local/ps3dev/ppu/lib/gcc/powerpc64-ps3-elf/4.7.0/../../../../powerpc64-ps3-elf/lib/libc.a(lib_a-exit.o)
 .debug_ranges  0x0000000000000040       0x70 /usr/local/ps3dev/ppu/lib/gcc/powerpc64-ps3-elf/4.7.0/../../../../powerpc64-ps3-elf/lib/libc.a(lib_a-getreent.o)
 .debug_ranges  0x00000000000000b0       0x30 /usr/local/ps3dev/ppu/lib/gcc/powerpc64-ps3-elf/4.7.0/../../../../powerpc64-ps3-elf/lib/libc.a(lib_a-malloc.o)
 .debug_ranges  0x00000000000000e0      0x100 /usr/local/ps3dev/ppu/lib/gcc/powerpc64-ps3-elf/4.7.0/../../../../powerpc64-ps3-elf/lib/libc.a(lib_a-mallocr.o)
 .debug_ranges  0x00000000000001e0       0x20 /usr/local/ps3dev/ppu/lib/gcc/powerpc64-ps3-elf/4.7.0/../../../../powerpc64-ps3-elf/lib/libc.a(lib_a-memset.o)
 .debug_ranges  0x0000000000000200       0x30 /usr/local/ps3dev/ppu/lib/gcc/powerpc64-ps3-elf/4.7.0/../../../../powerpc64-ps3-elf/lib/libc.a(lib_a-mlock.o)
 .debug_ranges  0x0000000000000230       0x30 /usr/local/ps3dev/ppu/lib/gcc/powerpc64-ps3-elf/4.7.0/../../../../powerpc64-ps3-elf/lib/libc.a(lib_a-sscanf.o)
 .debug_ranges  0x0000000000000260       0x60 /usr/local/ps3dev/ppu/lib/gcc/powerpc64-ps3-elf/4.7.0/../../../../powerpc64-ps3-elf/lib/libc.a(lib_a-stdio.o)
 .debug_ranges  0x00000000000002c0       0x20 /usr/local/ps3dev/ppu/lib/gcc/powerpc64-ps3-elf/4.7.0/../../../../powerpc64-ps3-elf/lib/libc.a(lib_a-strlen.o)
 .debug_ranges  0x00000000000002e0       0x20 /usr/local/ps3dev/ppu/lib/gcc/powerpc64-ps3-elf/4.7.0/../../../../powerpc64-ps3-elf/lib/libc.a(lib_a-strncpy.o)
 .debug_ranges  0x0000000000000300      0x3c0 /usr/local/ps3dev/ppu/lib/gcc/powerpc64-ps3-elf/4.7.0/../../../../powerpc64-ps3-elf/lib/libc.a(lib_a-svfscanf.o)
 .debug_ranges  0x00000000000006c0       0x70 /usr/local/ps3dev/ppu/lib/gcc/powerpc64-ps3-elf/4.7.0/../../../../powerpc64-ps3-elf/lib/libc.a(lib_a-__call_atexit.o)
 .debug_ranges  0x0000000000000730       0x30 /usr/local/ps3dev/ppu/lib/gcc/powerpc64-ps3-elf/4.7.0/../../../../powerpc64-ps3-elf/lib/libc.a(lib_a-freer.o)
 .debug_ranges  0x0000000000000760       0x20 /usr/local/ps3dev/ppu/lib/gcc/powerpc64-ps3-elf/4.7.0/../../../../powerpc64-ps3-elf/lib/libc.a(lib_a-iswspace.o)
 .debug_ranges  0x0000000000000780       0x90 /usr/local/ps3dev/ppu/lib/gcc/powerpc64-ps3-elf/4.7.0/../../../../powerpc64-ps3-elf/lib/libc.a(lib_a-locale.o)
 .debug_ranges  0x0000000000000810       0x60 /usr/local/ps3dev/ppu/lib/gcc/powerpc64-ps3-elf/4.7.0/../../../../powerpc64-ps3-elf/lib/libc.a(lib_a-lock_recursive.o)
 .debug_ranges  0x0000000000000870       0x30 /usr/local/ps3dev/ppu/lib/gcc/powerpc64-ps3-elf/4.7.0/../../../../powerpc64-ps3-elf/lib/libc.a(lib_a-mbrtowc.o)
 .debug_ranges  0x00000000000008a0       0x30 /usr/local/ps3dev/ppu/lib/gcc/powerpc64-ps3-elf/4.7.0/../../../../powerpc64-ps3-elf/lib/libc.a(lib_a-mbtowc_r.o)
 .debug_ranges  0x00000000000008d0       0x20 /usr/local/ps3dev/ppu/lib/gcc/powerpc64-ps3-elf/4.7.0/../../../../powerpc64-ps3-elf/lib/libc.a(lib_a-sccl.o)
 .debug_ranges  0x00000000000008f0       0x20 /usr/local/ps3dev/ppu/lib/gcc/powerpc64-ps3-elf/4.7.0/../../../../powerpc64-ps3-elf/lib/libc.a(lib_a-sf_nan.o)
 .debug_ranges  0x0000000000000910       0x50 /usr/local/ps3dev/ppu/lib/gcc/powerpc64-ps3-elf/4.7.0/../../../../powerpc64-ps3-elf/lib/libc.a(lib_a-s_fpclassify.o)
 .debug_ranges  0x0000000000000960       0x30 /usr/local/ps3dev/ppu/lib/gcc/powerpc64-ps3-elf/4.7.0/../../../../powerpc64-ps3-elf/lib/libc.a(lib_a-sprintf.o)
 .debug_ranges  0x0000000000000990       0x20 /usr/local/ps3dev/ppu/lib/gcc/powerpc64-ps3-elf/4.7.0/../../../../powerpc64-ps3-elf/lib/libc.a(lib_a-strcmp.o)
 .debug_ranges  0x00000000000009b0      0x1f0 /usr/local/ps3dev/ppu/lib/gcc/powerpc64-ps3-elf/4.7.0/../../../../powerpc64-ps3-elf/lib/libc.a(lib_a-strtod.o)
 .debug_ranges  0x0000000000000ba0       0x20 /usr/local/ps3dev/ppu/lib/gcc/powerpc64-ps3-elf/4.7.0/../../../../powerpc64-ps3-elf/lib/libc.a(lib_a-strtoll_r.o)
 .debug_ranges  0x0000000000000bc0       0x30 /usr/local/ps3dev/ppu/lib/gcc/powerpc64-ps3-elf/4.7.0/../../../../powerpc64-ps3-elf/lib/libc.a(lib_a-strtol.o)
 .debug_ranges  0x0000000000000bf0       0x20 /usr/local/ps3dev/ppu/lib/gcc/powerpc64-ps3-elf/4.7.0/../../../../powerpc64-ps3-elf/lib/libc.a(lib_a-strtoull_r.o)
 .debug_ranges  0x0000000000000c10       0x30 /usr/local/ps3dev/ppu/lib/gcc/powerpc64-ps3-elf/4.7.0/../../../../powerpc64-ps3-elf/lib/libc.a(lib_a-strtoul.o)
 .debug_ranges  0x0000000000000c40      0x1c0 /usr/local/ps3dev/ppu/lib/gcc/powerpc64-ps3-elf/4.7.0/../../../../powerpc64-ps3-elf/lib/libc.a(lib_a-svfiscanf.o)
 .debug_ranges  0x0000000000000e00      0x3b0 /usr/local/ps3dev/ppu/lib/gcc/powerpc64-ps3-elf/4.7.0/../../../../powerpc64-ps3-elf/lib/libc.a(lib_a-svfprintf.o)
 .debug_ranges  0x00000000000011b0       0x40 /usr/local/ps3dev/ppu/lib/gcc/powerpc64-ps3-elf/4.7.0/../../../../powerpc64-ps3-elf/lib/libc.a(lib_a-ungetc.o)
 .debug_ranges  0x00000000000011f0       0x20 /usr/local/ps3dev/ppu/lib/gcc/powerpc64-ps3-elf/4.7.0/../../../../powerpc64-ps3-elf/lib/libc.a(lib_a-__atexit.o)
 .debug_ranges  0x0000000000001210       0x30 /usr/local/ps3dev/ppu/lib/gcc/powerpc64-ps3-elf/4.7.0/../../../../powerpc64-ps3-elf/lib/libc.a(lib_a-dtoa.o)
 .debug_ranges  0x0000000000001240      0x160 /usr/local/ps3dev/ppu/lib/gcc/powerpc64-ps3-elf/4.7.0/../../../../powerpc64-ps3-elf/lib/libc.a(lib_a-fflush.o)
 .debug_ranges  0x00000000000013a0       0xf0 /usr/local/ps3dev/ppu/lib/gcc/powerpc64-ps3-elf/4.7.0/../../../../powerpc64-ps3-elf/lib/libc.a(lib_a-findfp.o)
 .debug_ranges  0x0000000000001490       0x30 /usr/local/ps3dev/ppu/lib/gcc/powerpc64-ps3-elf/4.7.0/../../../../powerpc64-ps3-elf/lib/libc.a(lib_a-fwalk.o)
 .debug_ranges  0x00000000000014c0       0xc0 /usr/local/ps3dev/ppu/lib/gcc/powerpc64-ps3-elf/4.7.0/../../../../powerpc64-ps3-elf/lib/libc.a(lib_a-gdtoa-gethex.o)
 .debug_ranges  0x0000000000001580       0x20 /usr/local/ps3dev/ppu/lib/gcc/powerpc64-ps3-elf/4.7.0/../../../../powerpc64-ps3-elf/lib/libc.a(lib_a-gdtoa-hexnan.o)
 .debug_ranges  0x00000000000015a0       0x30 /usr/local/ps3dev/ppu/lib/gcc/powerpc64-ps3-elf/4.7.0/../../../../powerpc64-ps3-elf/lib/libc.a(lib_a-lock_internal.o)
 .debug_ranges  0x00000000000015d0       0x20 /usr/local/ps3dev/ppu/lib/gcc/powerpc64-ps3-elf/4.7.0/../../../../powerpc64-ps3-elf/lib/libc.a(lib_a-memchr.o)
 .debug_ranges  0x00000000000015f0       0x20 /usr/local/ps3dev/ppu/lib/gcc/powerpc64-ps3-elf/4.7.0/../../../../powerpc64-ps3-elf/lib/libc.a(lib_a-memcpy.o)
 .debug_ranges  0x0000000000001610      0x1f0 /usr/local/ps3dev/ppu/lib/gcc/powerpc64-ps3-elf/4.7.0/../../../../powerpc64-ps3-elf/lib/libc.a(lib_a-mprec.o)
 .debug_ranges  0x0000000000001800      0x2c0 /usr/local/ps3dev/ppu/lib/gcc/powerpc64-ps3-elf/4.7.0/../../../../powerpc64-ps3-elf/lib/libc.a(lib_a-reallocr.o)
 .debug_ranges  0x0000000000001ac0       0x20 /usr/local/ps3dev/ppu/lib/gcc/powerpc64-ps3-elf/4.7.0/../../../../powerpc64-ps3-elf/lib/libc.a(lib_a-strncmp.o)
 .debug_ranges  0x0000000000001ae0       0xe0 /usr/local/ps3dev/ppu/lib/gcc/powerpc64-ps3-elf/4.7.0/../../../../powerpc64-ps3-elf/lib/libc.a(lib_a-svfiprintf.o)
 .debug_ranges  0x0000000000001bc0       0x20 /usr/local/ps3dev/ppu/lib/gcc/powerpc64-ps3-elf/4.7.0/../../../../powerpc64-ps3-elf/lib/libc.a(lib_a-abort.o)
 .debug_ranges  0x0000000000001be0       0x80 /usr/local/ps3dev/ppu/lib/gcc/powerpc64-ps3-elf/4.7.0/../../../../powerpc64-ps3-elf/lib/libc.a(lib_a-callocr.o)
 .debug_ranges  0x0000000000001c60       0x30 /usr/local/ps3dev/ppu/lib/gcc/powerpc64-ps3-elf/4.7.0/../../../../powerpc64-ps3-elf/lib/libc.a(lib_a-fclose.o)
 .debug_ranges  0x0000000000001c90       0x20 /usr/local/ps3dev/ppu/lib/gcc/powerpc64-ps3-elf/4.7.0/../../../../powerpc64-ps3-elf/lib/libc.a(lib_a-memmove.o)
 .debug_ranges  0x0000000000001cb0       0xf0 /usr/local/ps3dev/ppu/lib/gcc/powerpc64-ps3-elf/4.7.0/../../../../powerpc64-ps3-elf/lib/libc.a(lib_a-signal.o)
 .debug_ranges  0x0000000000001da0       0x20 /usr/local/ps3dev/ppu/lib/gcc/powerpc64-ps3-elf/4.7.0/../../../../powerpc64-ps3-elf/lib/libsysbase.a(close.o)
 .debug_ranges  0x0000000000001dc0       0x20 /usr/local/ps3dev/ppu/lib/gcc/powerpc64-ps3-elf/4.7.0/../../../../powerpc64-ps3-elf/lib/libsysbase.a(sbrk.o)
 .debug_ranges  0x0000000000001de0       0x20 /usr/local/ps3dev/ppu/lib/gcc/powerpc64-ps3-elf/4.7.0/../../../../powerpc64-ps3-elf/lib/libsysbase.a(_exit.o)
 .debug_ranges  0x0000000000001e00       0x20 /usr/local/ps3dev/ppu/lib/gcc/powerpc64-ps3-elf/4.7.0/../../../../powerpc64-ps3-elf/lib/libsysbase.a(lseek.o)
 .debug_ranges  0x0000000000001e20       0x20 /usr/local/ps3dev/ppu/lib/gcc/powerpc64-ps3-elf/4.7.0/../../../../powerpc64-ps3-elf/lib/libsysbase.a(read.o)
 .debug_ranges  0x0000000000001e40       0x20 /usr/local/ps3dev/ppu/lib/gcc/powerpc64-ps3-elf/4.7.0/../../../../powerpc64-ps3-elf/lib/libsysbase.a(write.o)
 .debug_ranges  0x0000000000001e60       0x60 /usr/local/ps3dev/ppu/lib/gcc/powerpc64-ps3-elf/4.7.0/../../../../powerpc64-ps3-elf/lib/libsysbase.a(lock.o)
 .debug_ranges  0x0000000000001ec0       0x20 /usr/local/ps3dev/ppu/lib/gcc/powerpc64-ps3-elf/4.7.0/../../../../powerpc64-ps3-elf/lib/libsysbase.a(getpid.o)
 .debug_ranges  0x0000000000001ee0       0x20 /usr/local/ps3dev/ppu/lib/gcc/powerpc64-ps3-elf/4.7.0/../../../../powerpc64-ps3-elf/lib/libsysbase.a(kill.o)

.gnu.attributes
 *(.gnu.attributes)

/DISCARD/
 *(.note.GNU-stack)
 *(.gnu_debuglink)
LOAD /usr/local/ps3dev/ppu/lib/gcc/powerpc64-ps3-elf/4.7.0/../../../../powerpc64-ps3-elf/lib/lv2-crti.o
LOAD /usr/local/ps3dev/ppu/lib/gcc/powerpc64-ps3-elf/4.7.0/crtbegin.o
LOAD /usr/local/ps3dev/ppu/lib/gcc/powerpc64-ps3-elf/4.7.0/../../../../powerpc64-ps3-elf/lib/lv2-crt0.o
LOAD /usr/local/ps3dev/ppu/lib/gcc/powerpc64-ps3-elf/4.7.0/../../../../powerpc64-ps3-elf/lib/lv2-sprx.o
LOAD /usr/local/ps3dev/portlibs/ppu/lib/libSDL.a
LOAD /usr/local/ps3dev/portlibs/ppu/lib/libSDL_image.a
LOAD /usr/local/ps3dev/portlibs/ppu/lib/libSDL_mixer.a
LOAD /usr/local/ps3dev/portlibs/ppu/lib/libSDL_ttf.a
LOAD /usr/local/ps3dev/libpsl1ght/ppu/lib/libpngdec.a
LOAD /usr/local/ps3dev/portlibs/ppu/lib/libpng.a
LOAD /usr/local/ps3dev/portlibs/ppu/lib/libjpeg.a
LOAD /usr/local/ps3dev/libpsl1ght/ppu/lib/libjpgdec.a
LOAD /usr/local/ps3dev/portlibs/ppu/lib/libvorbisfile.a
LOAD /usr/local/ps3dev/portlibs/ppu/lib/libvorbis.a
LOAD /usr/local/ps3dev/portlibs/ppu/lib/libogg.a
LOAD /usr/local/ps3dev/libpsl1ght/ppu/lib/libaudio.a
LOAD /usr/local/ps3dev/portlibs/ppu/lib/libmikmod.a
LOAD /usr/local/ps3dev/portlibs/ppu/lib/libtiff.a
LOAD /usr/local/ps3dev/ppu/lib/gcc/powerpc64-ps3-elf/4.7.0/../../../../powerpc64-ps3-elf/lib/libm.a
LOAD /usr/local/ps3dev/portlibs/ppu/lib/libfreetype.a
LOAD /usr/local/ps3dev/portlibs/ppu/lib/libz.a
LOAD /usr/local/ps3dev/portlibs/ppu/lib/libpixman-1.a
LOAD /usr/local/ps3dev/portlibs/ppu/lib/libSDLmain.a
LOAD /usr/local/ps3dev/libpsl1ght/ppu/lib/librsx.a
LOAD /usr/local/ps3dev/libpsl1ght/ppu/lib/libgcm_sys.a
LOAD /usr/local/ps3dev/libpsl1ght/ppu/lib/libio.a
LOAD /usr/local/ps3dev/libpsl1ght/ppu/lib/libsysutil.a
LOAD /usr/local/ps3dev/libpsl1ght/ppu/lib/librt.a
LOAD /usr/local/ps3dev/libpsl1ght/ppu/lib/liblv2.a
LOAD /usr/local/ps3dev/ppu/lib/gcc/powerpc64-ps3-elf/4.7.0/../../../../powerpc64-ps3-elf/lib/libm.a
LOAD /usr/local/ps3dev/portlibs/ppu/lib/libSDL_gfx.a
LOAD /usr/local/ps3dev/portlibs/ppu/lib/libSDL.a
LOAD /usr/local/ps3dev/portlibs/ppu/lib/libSDL_image.a
LOAD /usr/local/ps3dev/portlibs/ppu/lib/libSDL_mixer.a
LOAD /usr/local/ps3dev/portlibs/ppu/lib/libSDL_ttf.a
LOAD /usr/local/ps3dev/libpsl1ght/ppu/lib/libpngdec.a
LOAD /usr/local/ps3dev/portlibs/ppu/lib/libpng.a
LOAD /usr/local/ps3dev/portlibs/ppu/lib/libjpeg.a
LOAD /usr/local/ps3dev/libpsl1ght/ppu/lib/libjpgdec.a
LOAD /usr/local/ps3dev/portlibs/ppu/lib/libvorbisfile.a
LOAD /usr/local/ps3dev/portlibs/ppu/lib/libvorbis.a
LOAD /usr/local/ps3dev/portlibs/ppu/lib/libogg.a
LOAD /usr/local/ps3dev/libpsl1ght/ppu/lib/libaudio.a
LOAD /usr/local/ps3dev/portlibs/ppu/lib/libmikmod.a
LOAD /usr/local/ps3dev/portlibs/ppu/lib/libtiff.a
LOAD /usr/local/ps3dev/ppu/lib/gcc/powerpc64-ps3-elf/4.7.0/../../../../powerpc64-ps3-elf/lib/libm.a
LOAD /usr/local/ps3dev/portlibs/ppu/lib/libfreetype.a
LOAD /usr/local/ps3dev/portlibs/ppu/lib/libz.a
LOAD /usr/local/ps3dev/portlibs/ppu/lib/libpixman-1.a
LOAD /usr/local/ps3dev/portlibs/ppu/lib/libSDLmain.a
LOAD /usr/local/ps3dev/libpsl1ght/ppu/lib/librsx.a
LOAD /usr/local/ps3dev/libpsl1ght/ppu/lib/libgcm_sys.a
LOAD /usr/local/ps3dev/libpsl1ght/ppu/lib/libio.a
LOAD /usr/local/ps3dev/libpsl1ght/ppu/lib/libsysutil.a
LOAD /usr/local/ps3dev/libpsl1ght/ppu/lib/librt.a
LOAD /usr/local/ps3dev/libpsl1ght/ppu/lib/liblv2.a
LOAD /usr/local/ps3dev/ppu/lib/gcc/powerpc64-ps3-elf/4.7.0/../../../../powerpc64-ps3-elf/lib/libm.a
LOAD /usr/local/ps3dev/portlibs/ppu/lib/libSDL_gfx.a
LOAD /usr/local/ps3dev/ppu/lib/gcc/powerpc64-ps3-elf/4.7.0/libgcc.a
START GROUP
LOAD /usr/local/ps3dev/ppu/lib/gcc/powerpc64-ps3-elf/4.7.0/../../../../powerpc64-ps3-elf/lib/libsysbase.a
LOAD /usr/local/ps3dev/ppu/lib/gcc/powerpc64-ps3-elf/4.7.0/../../../../powerpc64-ps3-elf/lib/libc.a
LOAD /usr/local/ps3dev/libpsl1ght/ppu/lib/librt.a
LOAD /usr/local/ps3dev/libpsl1ght/ppu/lib/liblv2.a
END GROUP
LOAD /usr/local/ps3dev/ppu/lib/gcc/powerpc64-ps3-elf/4.7.0/libgcc.a
LOAD /usr/local/ps3dev/ppu/lib/gcc/powerpc64-ps3-elf/4.7.0/crtend.o
LOAD /usr/local/ps3dev/ppu/lib/gcc/powerpc64-ps3-elf/4.7.0/../../../../powerpc64-ps3-elf/lib/lv2-crtn.o
OUTPUT(knightstour.elf elf64-powerpc)
